
Optional file libmchp_peripheral.a not found

Optional file libmchp_peripheral_32MX470F512L.a not found
Archive member included because of file (symbol)

d:/program files (x86)/microchip/xc32/v2.30/bin/bin/../../lib/gcc/pic32mx/4.8.3\libgcc.a(floatunsisf.o)
                              build/default/debug/_ext/60169480/plib_i2c1.o (__floatunsisf)
d:/program files (x86)/microchip/xc32/v2.30/bin/bin/../../lib/gcc/pic32mx/4.8.3/../../../../pic32mx/lib\libpic32.a(memcpy.o)
                              build/default/debug/_ext/60176403/plib_nvm.o (memcpy)
d:/program files (x86)/microchip/xc32/v2.30/bin/bin/../../lib/gcc/pic32mx/4.8.3/../../../../pic32mx/lib\libpic32.a(memset.o)
                              build/default/debug/_ext/1360937237/audits.o (memset)
d:/program files (x86)/microchip/xc32/v2.30/bin/bin/../../lib/gcc/pic32mx/4.8.3/../../../../pic32mx/lib\libpic32.a(default-bootstrap-exception-handler.o)
                              C:\Users\ADMINI~1\AppData\Local\Temp\cc3xLHuC.o (_bootstrap_exception_handler)
d:/program files (x86)/microchip/xc32/v2.30/bin/bin/../../lib/gcc/pic32mx/4.8.3/../../../../pic32mx/lib\libpic32.a(default-on-reset.o)
                              C:\Users\ADMINI~1\AppData\Local\Temp\cc3xLHuC.o (_on_reset)
d:/program files (x86)/microchip/xc32/v2.30/bin/bin/../../lib/gcc/pic32mx/4.8.3/../../../../pic32mx/lib\libpic32.a(default-on-bootstrap.o)
                              C:\Users\ADMINI~1\AppData\Local\Temp\cc3xLHuC.o (_on_bootstrap)
d:/program files (x86)/microchip/xc32/v2.30/bin/bin/../../lib/gcc/pic32mx/4.8.3/../../../../pic32mx/lib\libpic32.a(default-nmi-handler.o)
                              C:\Users\ADMINI~1\AppData\Local\Temp\cc3xLHuC.o (_nmi_handler)
d:/program files (x86)/microchip/xc32/v2.30/bin/bin/../../lib/gcc/pic32mx/4.8.3/../../../../pic32mx/lib\libpic32.a(pic32_data_init.o)
                              C:\Users\ADMINI~1\AppData\Local\Temp\cc3xLHuC.o (__pic32_data_init)
d:/program files (x86)/microchip/xc32/v2.30/bin/bin/../../lib/gcc/pic32mx/4.8.3/../../../../pic32mx/lib\libpic32.a(general-exception.o)
                              C:\Users\ADMINI~1\AppData\Local\Temp\cc3xLHuC.o (_general_exception_context)
d:/program files (x86)/microchip/xc32/v2.30/bin/bin/../../lib/gcc/pic32mx/4.8.3/../../../../pic32mx/lib\libpic32.a(vector0.o)
                              C:\Users\ADMINI~1\AppData\Local\Temp\cc0AzwVc.o (__vector_dispatch_0)
d:/program files (x86)/microchip/xc32/v2.30/bin/bin/../../lib/gcc/pic32mx/4.8.3/../../../../pic32mx/lib\libpic32.a(vector2.o)
                              C:\Users\ADMINI~1\AppData\Local\Temp\cc0AzwVc.o (__vector_dispatch_2)
d:/program files (x86)/microchip/xc32/v2.30/bin/bin/../../lib/gcc/pic32mx/4.8.3/../../../../pic32mx/lib\libpic32.a(vector3.o)
                              C:\Users\ADMINI~1\AppData\Local\Temp\cc0AzwVc.o (__vector_dispatch_3)
d:/program files (x86)/microchip/xc32/v2.30/bin/bin/../../lib/gcc/pic32mx/4.8.3/../../../../pic32mx/lib\libpic32.a(vector5.o)
                              C:\Users\ADMINI~1\AppData\Local\Temp\cc0AzwVc.o (__vector_dispatch_5)
d:/program files (x86)/microchip/xc32/v2.30/bin/bin/../../lib/gcc/pic32mx/4.8.3/../../../../pic32mx/lib\libpic32.a(vector6.o)
                              C:\Users\ADMINI~1\AppData\Local\Temp\cc0AzwVc.o (__vector_dispatch_6)
d:/program files (x86)/microchip/xc32/v2.30/bin/bin/../../lib/gcc/pic32mx/4.8.3/../../../../pic32mx/lib\libpic32.a(vector7.o)
                              C:\Users\ADMINI~1\AppData\Local\Temp\cc0AzwVc.o (__vector_dispatch_7)
d:/program files (x86)/microchip/xc32/v2.30/bin/bin/../../lib/gcc/pic32mx/4.8.3/../../../../pic32mx/lib\libpic32.a(vector8.o)
                              C:\Users\ADMINI~1\AppData\Local\Temp\cc0AzwVc.o (__vector_dispatch_8)
d:/program files (x86)/microchip/xc32/v2.30/bin/bin/../../lib/gcc/pic32mx/4.8.3/../../../../pic32mx/lib\libpic32.a(vector9.o)
                              C:\Users\ADMINI~1\AppData\Local\Temp\cc0AzwVc.o (__vector_dispatch_9)
d:/program files (x86)/microchip/xc32/v2.30/bin/bin/../../lib/gcc/pic32mx/4.8.3/../../../../pic32mx/lib\libpic32.a(vector10.o)
                              C:\Users\ADMINI~1\AppData\Local\Temp\cc0AzwVc.o (__vector_dispatch_10)
d:/program files (x86)/microchip/xc32/v2.30/bin/bin/../../lib/gcc/pic32mx/4.8.3/../../../../pic32mx/lib\libpic32.a(vector11.o)
                              C:\Users\ADMINI~1\AppData\Local\Temp\cc0AzwVc.o (__vector_dispatch_11)
d:/program files (x86)/microchip/xc32/v2.30/bin/bin/../../lib/gcc/pic32mx/4.8.3/../../../../pic32mx/lib\libpic32.a(vector12.o)
                              C:\Users\ADMINI~1\AppData\Local\Temp\cc0AzwVc.o (__vector_dispatch_12)
d:/program files (x86)/microchip/xc32/v2.30/bin/bin/../../lib/gcc/pic32mx/4.8.3/../../../../pic32mx/lib\libpic32.a(vector13.o)
                              C:\Users\ADMINI~1\AppData\Local\Temp\cc0AzwVc.o (__vector_dispatch_13)
d:/program files (x86)/microchip/xc32/v2.30/bin/bin/../../lib/gcc/pic32mx/4.8.3/../../../../pic32mx/lib\libpic32.a(vector14.o)
                              C:\Users\ADMINI~1\AppData\Local\Temp\cc0AzwVc.o (__vector_dispatch_14)
d:/program files (x86)/microchip/xc32/v2.30/bin/bin/../../lib/gcc/pic32mx/4.8.3/../../../../pic32mx/lib\libpic32.a(vector15.o)
                              C:\Users\ADMINI~1\AppData\Local\Temp\cc0AzwVc.o (__vector_dispatch_15)
d:/program files (x86)/microchip/xc32/v2.30/bin/bin/../../lib/gcc/pic32mx/4.8.3/../../../../pic32mx/lib\libpic32.a(vector16.o)
                              C:\Users\ADMINI~1\AppData\Local\Temp\cc0AzwVc.o (__vector_dispatch_16)
d:/program files (x86)/microchip/xc32/v2.30/bin/bin/../../lib/gcc/pic32mx/4.8.3/../../../../pic32mx/lib\libpic32.a(vector17.o)
                              C:\Users\ADMINI~1\AppData\Local\Temp\cc0AzwVc.o (__vector_dispatch_17)
d:/program files (x86)/microchip/xc32/v2.30/bin/bin/../../lib/gcc/pic32mx/4.8.3/../../../../pic32mx/lib\libpic32.a(vector18.o)
                              C:\Users\ADMINI~1\AppData\Local\Temp\cc0AzwVc.o (__vector_dispatch_18)
d:/program files (x86)/microchip/xc32/v2.30/bin/bin/../../lib/gcc/pic32mx/4.8.3/../../../../pic32mx/lib\libpic32.a(vector19.o)
                              C:\Users\ADMINI~1\AppData\Local\Temp\cc0AzwVc.o (__vector_dispatch_19)
d:/program files (x86)/microchip/xc32/v2.30/bin/bin/../../lib/gcc/pic32mx/4.8.3/../../../../pic32mx/lib\libpic32.a(vector20.o)
                              C:\Users\ADMINI~1\AppData\Local\Temp\cc0AzwVc.o (__vector_dispatch_20)
d:/program files (x86)/microchip/xc32/v2.30/bin/bin/../../lib/gcc/pic32mx/4.8.3/../../../../pic32mx/lib\libpic32.a(vector21.o)
                              C:\Users\ADMINI~1\AppData\Local\Temp\cc0AzwVc.o (__vector_dispatch_21)
d:/program files (x86)/microchip/xc32/v2.30/bin/bin/../../lib/gcc/pic32mx/4.8.3/../../../../pic32mx/lib\libpic32.a(vector22.o)
                              C:\Users\ADMINI~1\AppData\Local\Temp\cc0AzwVc.o (__vector_dispatch_22)
d:/program files (x86)/microchip/xc32/v2.30/bin/bin/../../lib/gcc/pic32mx/4.8.3/../../../../pic32mx/lib\libpic32.a(vector24.o)
                              C:\Users\ADMINI~1\AppData\Local\Temp\cc0AzwVc.o (__vector_dispatch_24)
d:/program files (x86)/microchip/xc32/v2.30/bin/bin/../../lib/gcc/pic32mx/4.8.3/../../../../pic32mx/lib\libpic32.a(vector25.o)
                              C:\Users\ADMINI~1\AppData\Local\Temp\cc0AzwVc.o (__vector_dispatch_25)
d:/program files (x86)/microchip/xc32/v2.30/bin/bin/../../lib/gcc/pic32mx/4.8.3/../../../../pic32mx/lib\libpic32.a(vector26.o)
                              C:\Users\ADMINI~1\AppData\Local\Temp\cc0AzwVc.o (__vector_dispatch_26)
d:/program files (x86)/microchip/xc32/v2.30/bin/bin/../../lib/gcc/pic32mx/4.8.3/../../../../pic32mx/lib\libpic32.a(vector27.o)
                              C:\Users\ADMINI~1\AppData\Local\Temp\cc0AzwVc.o (__vector_dispatch_27)
d:/program files (x86)/microchip/xc32/v2.30/bin/bin/../../lib/gcc/pic32mx/4.8.3/../../../../pic32mx/lib\libpic32.a(vector28.o)
                              C:\Users\ADMINI~1\AppData\Local\Temp\cc0AzwVc.o (__vector_dispatch_28)
d:/program files (x86)/microchip/xc32/v2.30/bin/bin/../../lib/gcc/pic32mx/4.8.3/../../../../pic32mx/lib\libpic32.a(vector29.o)
                              C:\Users\ADMINI~1\AppData\Local\Temp\cc0AzwVc.o (__vector_dispatch_29)
d:/program files (x86)/microchip/xc32/v2.30/bin/bin/../../lib/gcc/pic32mx/4.8.3/../../../../pic32mx/lib\libpic32.a(vector30.o)
                              C:\Users\ADMINI~1\AppData\Local\Temp\cc0AzwVc.o (__vector_dispatch_30)
d:/program files (x86)/microchip/xc32/v2.30/bin/bin/../../lib/gcc/pic32mx/4.8.3/../../../../pic32mx/lib\libpic32.a(vector31.o)
                              C:\Users\ADMINI~1\AppData\Local\Temp\cc0AzwVc.o (__vector_dispatch_31)
d:/program files (x86)/microchip/xc32/v2.30/bin/bin/../../lib/gcc/pic32mx/4.8.3/../../../../pic32mx/lib\libpic32.a(vector33.o)
                              C:\Users\ADMINI~1\AppData\Local\Temp\cc0AzwVc.o (__vector_dispatch_33)
d:/program files (x86)/microchip/xc32/v2.30/bin/bin/../../lib/gcc/pic32mx/4.8.3/../../../../pic32mx/lib\libpic32.a(vector34.o)
                              C:\Users\ADMINI~1\AppData\Local\Temp\cc0AzwVc.o (__vector_dispatch_34)
d:/program files (x86)/microchip/xc32/v2.30/bin/bin/../../lib/gcc/pic32mx/4.8.3/../../../../pic32mx/lib\libpic32.a(vector35.o)
                              C:\Users\ADMINI~1\AppData\Local\Temp\cc0AzwVc.o (__vector_dispatch_35)
d:/program files (x86)/microchip/xc32/v2.30/bin/bin/../../lib/gcc/pic32mx/4.8.3/../../../../pic32mx/lib\libpic32.a(vector36.o)
                              C:\Users\ADMINI~1\AppData\Local\Temp\cc0AzwVc.o (__vector_dispatch_36)
d:/program files (x86)/microchip/xc32/v2.30/bin/bin/../../lib/gcc/pic32mx/4.8.3/../../../../pic32mx/lib\libpic32.a(vector37.o)
                              C:\Users\ADMINI~1\AppData\Local\Temp\cc0AzwVc.o (__vector_dispatch_37)
d:/program files (x86)/microchip/xc32/v2.30/bin/bin/../../lib/gcc/pic32mx/4.8.3/../../../../pic32mx/lib\libpic32.a(vector38.o)
                              C:\Users\ADMINI~1\AppData\Local\Temp\cc0AzwVc.o (__vector_dispatch_38)
d:/program files (x86)/microchip/xc32/v2.30/bin/bin/../../lib/gcc/pic32mx/4.8.3/../../../../pic32mx/lib\libpic32.a(vector39.o)
                              C:\Users\ADMINI~1\AppData\Local\Temp\cc0AzwVc.o (__vector_dispatch_39)
d:/program files (x86)/microchip/xc32/v2.30/bin/bin/../../lib/gcc/pic32mx/4.8.3/../../../../pic32mx/lib\libpic32.a(vector40.o)
                              C:\Users\ADMINI~1\AppData\Local\Temp\cc0AzwVc.o (__vector_dispatch_40)
d:/program files (x86)/microchip/xc32/v2.30/bin/bin/../../lib/gcc/pic32mx/4.8.3/../../../../pic32mx/lib\libpic32.a(vector41.o)
                              C:\Users\ADMINI~1\AppData\Local\Temp\cc0AzwVc.o (__vector_dispatch_41)
d:/program files (x86)/microchip/xc32/v2.30/bin/bin/../../lib/gcc/pic32mx/4.8.3/../../../../pic32mx/lib\libpic32.a(vector42.o)
                              C:\Users\ADMINI~1\AppData\Local\Temp\cc0AzwVc.o (__vector_dispatch_42)
d:/program files (x86)/microchip/xc32/v2.30/bin/bin/../../lib/gcc/pic32mx/4.8.3/../../../../pic32mx/lib\libpic32.a(vector43.o)
                              C:\Users\ADMINI~1\AppData\Local\Temp\cc0AzwVc.o (__vector_dispatch_43)
d:/program files (x86)/microchip/xc32/v2.30/bin/bin/../../lib/gcc/pic32mx/4.8.3/../../../../pic32mx/lib\libpic32.a(vector44.o)
                              C:\Users\ADMINI~1\AppData\Local\Temp\cc0AzwVc.o (__vector_dispatch_44)
d:/program files (x86)/microchip/xc32/v2.30/bin/bin/../../lib/gcc/pic32mx/4.8.3/../../../../pic32mx/lib\libpic32.a(vector45.o)
                              C:\Users\ADMINI~1\AppData\Local\Temp\cc0AzwVc.o (__vector_dispatch_45)
d:/program files (x86)/microchip/xc32/v2.30/bin/bin/../../lib/gcc/pic32mx/4.8.3/../../../../pic32mx/lib\libpic32.a(defaultinterrupt.o)
                              d:/program files (x86)/microchip/xc32/v2.30/bin/bin/../../lib/gcc/pic32mx/4.8.3/../../../../pic32mx/lib\libpic32.a(vector0.o) (_DefaultInterrupt)
d:/program files (x86)/microchip/xc32/v2.30/bin/bin/../../lib/gcc/pic32mx/4.8.3/../../../../pic32mx/lib\libc.a(memmove.o)
                              build/default/debug/_ext/1360937237/audits.o (memmove)
d:/program files (x86)/microchip/xc32/v2.30/bin/bin/../../lib/gcc/pic32mx/4.8.3/../../../../pic32mx/lib\libc.a(vprintf.o)
                              build/default/debug/_ext/1360937237/hd44780.o (vprintf)
d:/program files (x86)/microchip/xc32/v2.30/bin/bin/../../lib/gcc/pic32mx/4.8.3/../../../../pic32mx/lib\libc.a(_iob.o)
                              d:/program files (x86)/microchip/xc32/v2.30/bin/bin/../../lib/gcc/pic32mx/4.8.3/../../../../pic32mx/lib\libc.a(vprintf.o) (_iob)
d:/program files (x86)/microchip/xc32/v2.30/bin/bin/../../lib/gcc/pic32mx/4.8.3/../../../../pic32mx/lib\libc.a(doprnt.o)
                              d:/program files (x86)/microchip/xc32/v2.30/bin/bin/../../lib/gcc/pic32mx/4.8.3/../../../../pic32mx/lib\libc.a(vprintf.o) (vfprintf)
d:/program files (x86)/microchip/xc32/v2.30/bin/bin/../../lib/gcc/pic32mx/4.8.3/../../../../pic32mx/lib\libc.a(_fputc_simple.o)
                              d:/program files (x86)/microchip/xc32/v2.30/bin/bin/../../lib/gcc/pic32mx/4.8.3/../../../../pic32mx/lib\libc.a(doprnt.o) (fputc)
d:/program files (x86)/microchip/xc32/v2.30/bin/bin/../../lib/gcc/pic32mx/4.8.3/../../../../pic32mx/lib\libc.a(ctype.o)
                              d:/program files (x86)/microchip/xc32/v2.30/bin/bin/../../lib/gcc/pic32mx/4.8.3/../../../../pic32mx/lib\libc.a(doprnt.o) (_ctype)
d:/program files (x86)/microchip/xc32/v2.30/bin/bin/../../lib/gcc/pic32mx/4.8.3/../../../../pic32mx/lib\libc.a(ldpowers.o)
                              d:/program files (x86)/microchip/xc32/v2.30/bin/bin/../../lib/gcc/pic32mx/4.8.3/../../../../pic32mx/lib\libc.a(doprnt.o) (_npowers_)
d:/program files (x86)/microchip/xc32/v2.30/bin/bin/../../lib/gcc/pic32mx/4.8.3/../../../../pic32mx/lib\libc.a(_flsbuf_simple.o)
                              d:/program files (x86)/microchip/xc32/v2.30/bin/bin/../../lib/gcc/pic32mx/4.8.3/../../../../pic32mx/lib\libc.a(_fputc_simple.o) (_flsbuf)
d:/program files (x86)/microchip/xc32/v2.30/bin/bin/../../lib/gcc/pic32mx/4.8.3/../../../../pic32mx/lib\libm.a(dpfrexp.o)
                              d:/program files (x86)/microchip/xc32/v2.30/bin/bin/../../lib/gcc/pic32mx/4.8.3/../../../../pic32mx/lib\libc.a(doprnt.o) (frexpl)
d:/program files (x86)/microchip/xc32/v2.30/bin/bin/../../lib/gcc/pic32mx/4.8.3/../../../../pic32mx/lib\libm.a(dp32div.o)
                              d:/program files (x86)/microchip/xc32/v2.30/bin/bin/../../lib/gcc/pic32mx/4.8.3/../../../../pic32mx/lib\libc.a(doprnt.o) (dpdiv)
d:/program files (x86)/microchip/xc32/v2.30/bin/bin/../../lib/gcc/pic32mx/4.8.3/../../../../pic32mx/lib\libm.a(dp32mul.o)
                              d:/program files (x86)/microchip/xc32/v2.30/bin/bin/../../lib/gcc/pic32mx/4.8.3/../../../../pic32mx/lib\libc.a(doprnt.o) (dpmul)
d:/program files (x86)/microchip/xc32/v2.30/bin/bin/../../lib/gcc/pic32mx/4.8.3/../../../../pic32mx/lib\libm.a(dp32subadd.o)
                              d:/program files (x86)/microchip/xc32/v2.30/bin/bin/../../lib/gcc/pic32mx/4.8.3/../../../../pic32mx/lib\libc.a(doprnt.o) (dpsub)
d:/program files (x86)/microchip/xc32/v2.30/bin/bin/../../lib/gcc/pic32mx/4.8.3/../../../../pic32mx/lib\libm.a(dpcmp.o)
                              d:/program files (x86)/microchip/xc32/v2.30/bin/bin/../../lib/gcc/pic32mx/4.8.3/../../../../pic32mx/lib\libc.a(doprnt.o) (dpcmp)
d:/program files (x86)/microchip/xc32/v2.30/bin/bin/../../lib/gcc/pic32mx/4.8.3/../../../../pic32mx/lib\libm.a(dptoul.o)
                              d:/program files (x86)/microchip/xc32/v2.30/bin/bin/../../lib/gcc/pic32mx/4.8.3/../../../../pic32mx/lib\libc.a(doprnt.o) (dptoul)
d:/program files (x86)/microchip/xc32/v2.30/bin/bin/../../lib/gcc/pic32mx/4.8.3/../../../../pic32mx/lib\libm.a(fp32div.o)
                              build/default/debug/_ext/60169480/plib_i2c1.o (fpdiv)
d:/program files (x86)/microchip/xc32/v2.30/bin/bin/../../lib/gcc/pic32mx/4.8.3/../../../../pic32mx/lib\libm.a(fp32mul.o)
                              build/default/debug/_ext/60169480/plib_i2c1.o (fpmul)
d:/program files (x86)/microchip/xc32/v2.30/bin/bin/../../lib/gcc/pic32mx/4.8.3/../../../../pic32mx/lib\libm.a(fp32subadd.o)
                              build/default/debug/_ext/60169480/plib_i2c1.o (fpsub)
d:/program files (x86)/microchip/xc32/v2.30/bin/bin/../../lib/gcc/pic32mx/4.8.3/../../../../pic32mx/lib\libm.a(fpcmp.o)
                              build/default/debug/_ext/1360937237/DS18B20.o (fpcmp)
d:/program files (x86)/microchip/xc32/v2.30/bin/bin/../../lib/gcc/pic32mx/4.8.3/../../../../pic32mx/lib\libm.a(fptodp.o)
                              d:/program files (x86)/microchip/xc32/v2.30/bin/bin/../../lib/gcc/pic32mx/4.8.3/../../../../pic32mx/lib\libc.a(doprnt.o) (fptodp)
d:/program files (x86)/microchip/xc32/v2.30/bin/bin/../../lib/gcc/pic32mx/4.8.3/../../../../pic32mx/lib\libm.a(fptoul.o)
                              build/default/debug/_ext/60169480/plib_i2c1.o (fptoui)
d:/program files (x86)/microchip/xc32/v2.30/bin/bin/../../lib/gcc/pic32mx/4.8.3/../../../../pic32mx/lib\libm.a(sitofp.o)
                              build/default/debug/_ext/659830161/MDB_CG.o (sitofp)
d:/program files (x86)/microchip/xc32/v2.30/bin/bin/../../lib/gcc/pic32mx/4.8.3/../../../../pic32mx/lib\libe.a(_fixunsdfdi.o)
                              d:/program files (x86)/microchip/xc32/v2.30/bin/bin/../../lib/gcc/pic32mx/4.8.3/../../../../pic32mx/lib\libc.a(doprnt.o) (__fixunsdfdi)
d:/program files (x86)/microchip/xc32/v2.30/bin/bin/../../lib/gcc/pic32mx/4.8.3/../../../../pic32mx/lib\libe.a(_orderdf2.o)
                              d:/program files (x86)/microchip/xc32/v2.30/bin/bin/../../lib/gcc/pic32mx/4.8.3/../../../../pic32mx/lib\libe.a(_fixunsdfdi.o) (__orderdf2)
d:/program files (x86)/microchip/xc32/v2.30/bin/bin/../../lib/gcc/pic32mx/4.8.3/../../../../pic32mx/lib\libe.a(_fixdfdi.o)
                              d:/program files (x86)/microchip/xc32/v2.30/bin/bin/../../lib/gcc/pic32mx/4.8.3/../../../../pic32mx/lib\libe.a(_fixunsdfdi.o) (__fixdfdi)
d:/program files (x86)/microchip/xc32/v2.30/bin/bin/../../lib/gcc/pic32mx/4.8.3\libgcc.a(_floatundidf.o)
                              d:/program files (x86)/microchip/xc32/v2.30/bin/bin/../../lib/gcc/pic32mx/4.8.3/../../../../pic32mx/lib\libc.a(doprnt.o) (__floatundidf)
d:/program files (x86)/microchip/xc32/v2.30/bin/bin/../../lib/gcc/pic32mx/4.8.3\libgcc.a(_udivdi3.o)
                              d:/program files (x86)/microchip/xc32/v2.30/bin/bin/../../lib/gcc/pic32mx/4.8.3/../../../../pic32mx/lib\libc.a(doprnt.o) (__udivdi3)
d:/program files (x86)/microchip/xc32/v2.30/bin/bin/../../lib/gcc/pic32mx/4.8.3\libgcc.a(_umoddi3.o)
                              d:/program files (x86)/microchip/xc32/v2.30/bin/bin/../../lib/gcc/pic32mx/4.8.3/../../../../pic32mx/lib\libc.a(doprnt.o) (__umoddi3)
d:/program files (x86)/microchip/xc32/v2.30/bin/bin/../../lib/gcc/pic32mx/4.8.3\libgcc.a(floatunsidf.o)
                              d:/program files (x86)/microchip/xc32/v2.30/bin/bin/../../lib/gcc/pic32mx/4.8.3/../../../../pic32mx/lib\libc.a(doprnt.o) (__floatunsidf)
d:/program files (x86)/microchip/xc32/v2.30/bin/bin/../../lib/gcc/pic32mx/4.8.3/../../../../pic32mx/lib\libpic32.a(write.o)
                              d:/program files (x86)/microchip/xc32/v2.30/bin/bin/../../lib/gcc/pic32mx/4.8.3/../../../../pic32mx/lib\libc.a(_fputc_simple.o) (write)
d:/program files (x86)/microchip/xc32/v2.30/bin/bin/../../lib/gcc/pic32mx/4.8.3/../../../../pic32mx/lib\libm.a(litodp.o)
                              d:/program files (x86)/microchip/xc32/v2.30/bin/bin/../../lib/gcc/pic32mx/4.8.3\libgcc.a(floatunsidf.o) (litodp)

Allocating common symbols
Common symbol       size              file

pxReadyTasksLists   0x64              build/default/debug/_ext/404212886/FreeRTOS_tasks.o
changeGiver         0x98              build/default/debug/_ext/659830161/MDB_CG.o
xPendingReadyList   0x14              build/default/debug/_ext/404212886/FreeRTOS_tasks.o
xSuspendedTaskList  0x14              build/default/debug/_ext/404212886/FreeRTOS_tasks.o
ADC_CallbackObj     0x8               build/default/debug/_ext/60163342/plib_adc.o
hTOCumul            0x4               build/default/debug/_ext/1171490990/initialization.o
adcs                0x18              build/default/debug/_ext/1360937237/trap_security.o
pxDelayedTaskList   0x4               build/default/debug/_ext/404212886/FreeRTOS_tasks.o
xMAINBOARD2_Tasks   0x4               build/default/debug/_ext/1171490990/tasks.o
xQueueRegistry      0x50              build/default/debug/_ext/404212886/queue.o
ds18b20             0x1c              build/default/debug/_ext/1360937237/DS18B20.o
leds                0x10              build/default/debug/_ext/1360937237/leds.o
motors              0x18              build/default/debug/_ext/1360937237/moteurs.o
pxOverflowDelayedTaskList
                    0x4               build/default/debug/_ext/404212886/FreeRTOS_tasks.o
sysObj              0x4               build/default/debug/_ext/1171490990/initialization.o
hTimerDisplaySelection
                    0x4               build/default/debug/_ext/1171490990/initialization.o
pcCom               0xc               build/default/debug/_ext/1171490990/initialization.o
switchs             0x1c              build/default/debug/_ext/1360937237/contacts.o
xDelayedTaskList1   0x14              build/default/debug/_ext/404212886/FreeRTOS_tasks.o
xTasksWaitingTermination
                    0x14              build/default/debug/_ext/404212886/FreeRTOS_tasks.o
mdb                 0x18              build/default/debug/_ext/659830161/MDB.o
billValidator       0x6a              build/default/debug/_ext/659830161/MDB_BV.o
hTimerOverPay       0x4               build/default/debug/_ext/1171490990/initialization.o
xDelayedTaskList2   0x14              build/default/debug/_ext/404212886/FreeRTOS_tasks.o

Microchip PIC32 Memory-Usage Report

kseg0 Program-Memory Usage
section                    address  length [bytes]      (dec)  Description
-------                 ----------  -------------------------  -----------
.text.general_exception 0x9d000000           0xdc         220   
.text.dsCRC8            0x9d0000dc           0xd8         216   
.text.vMotorsInit       0x9d0001b4           0xd8         216   
.text.ds18b20ReadScratc 0x9d00028c           0xd4         212   
.text.isMDBPoll         0x9d000360           0xd0         208   
.text.OneWireWriteByte  0x9d000430           0xd0         208   
.text.isGetBVId         0x9d000500           0xcc         204   
.text.DRV_AT24_Open     0x9d0005cc           0xc8         200   
.text.NVM_StartOperatio 0x9d000694           0xc8         200   
.text.vCreateChar       0x9d00075c           0xc8         200   
.text.OneWireReadByte   0x9d000824           0xc8         200   
.text.xQueueGenericCrea 0x9d0008ec           0xc4         196   
.text.vQueueWaitForMess 0x9d0009b0           0xc4         196   
.text.vTaskStartSchedul 0x9d000a74           0xc4         196   
.text.setShiftState     0x9d000b38           0xc4         196   
.text.vLEDsKeybInit     0x9d000bfc           0xc0         192   
.text.vLCD_Function     0x9d000cbc           0xbc         188   
.text.prvCheckForValidL 0x9d000d78           0xb8         184   
.text.prvInitialiseNewT 0x9d000e30           0xb4         180   
.text._I2CEventHandler  0x9d000ee4           0xb0         176   
.text.vQueueAddToRegist 0x9d000f94           0xb0         176   
.text.vLCD_Display_cont 0x9d001044           0xb0         176   
.text.prvCopyDataFromQu 0x9d0010f4           0xac         172   
.text.fptodp            0x9d0011a0           0xac         172   
.text.UART3_Write       0x9d00124c           0xa8         168   
.text.isSetMDBillType   0x9d0012f4           0xa8         168   
.text                   0x9d00139c           0xa8         168  App's exec code 
.text.libm              0x9d001444           0xa8         168   
.text.DRV_AT24_Write    0x9d0014ec           0xa4         164   
.text.setAuditValue     0x9d001590           0xa4         164   
.text.UART3_ErrorClear  0x9d001634           0xa0         160   
.text.uxListRemove      0x9d0016d4           0xa0         160   
.text.isCGEnableFeature 0x9d001774           0xa0         160   
.text.isBVEnableFeature 0x9d001814           0xa0         160   
.text.isSetBillEnable   0x9d0018b4           0xa0         160   
.text.I2C1_Initialize   0x9d001954           0x9c         156   
.text.vApplicationSetup 0x9d0019f0           0x9c         156   
.text.isSetCoinEnable   0x9d001a8c           0x9c         156   
.text.fpcmp             0x9d001b28           0x9c         156   
.text.write             0x9d001bc4           0x9c         156   
.text.I2C1_BUS_Interrup 0x9d001c60           0x98         152   
.text.prvInitialiseNewQ 0x9d001cf8           0x98         152   
.text.prvCheckTasksWait 0x9d001d90           0x98         152   
.text.isAlternatePayout 0x9d001e28           0x98         152   
.text.isGetMDBConfig    0x9d001ec0           0x94         148   
.text.vDisplayLCD       0x9d001f54           0x94         148   
.text.I2C_1_InterruptHa 0x9d001fe8           0x90         144   
.text.ADC_Initialize    0x9d002078           0x8c         140   
.text.xPortStartSchedul 0x9d002104           0x8c         140   
.text.vListInsertEnd    0x9d002190           0x8c         140   
.text.vTaskDelay        0x9d00221c           0x8c         140   
.text.isGetCGId         0x9d0022a8           0x8c         140   
.text.dptoul            0x9d002334           0x8c         140   
.text.__orderdf2        0x9d0023c0           0x8c         140   
.text.xTimerCreate      0x9d00244c           0x88         136   
.text.isMDBReset        0x9d0024d4           0x88         136   
.text.vLCDGotoXY        0x9d00255c           0x88         136   
.text.vDS18B20Init      0x9d0025e4           0x88         136   
.text.GPIO_PortWrite    0x9d00266c           0x84         132   
.text.I2C1_IsBusy       0x9d0026f0           0x84         132   
.text.vAuditsInit       0x9d002774           0x84         132   
.text.vTaskExitCritical 0x9d0027f8           0x84         132   
.text.isGetBVtackerStat 0x9d00287c           0x84         132   
.text.vLCD_EntryMode    0x9d002900           0x84         132   
.text.MAINBOARD2_Initia 0x9d002984           0x84         132   
.text                   0x9d002a08           0x84         132  App's exec code 
.text._DRV_AT24_ReadSta 0x9d002a8c           0x80         128   
.text.isSetMDBCoinType  0x9d002b0c           0x80         128   
.text.__fixunsdfdi      0x9d002b8c           0x80         128   
.text.prvTaskIsTaskSusp 0x9d002c0c           0x7c         124   
.text.prvGetNextExpireT 0x9d002c88           0x7c         124   
.text.prvSampleTimeNow  0x9d002d04           0x7c         124   
.text.vSetCGRamAddr     0x9d002d80           0x7c         124   
.text.xTimerCreateTimer 0x9d002dfc           0x78         120   
.text._mon_putc         0x9d002e74           0x78         120   
.text.vTO_OverPay       0x9d002eec           0x78         120   
.text.litodp            0x9d002f64           0x78         120   
.text._general_exceptio 0x9d002fdc           0x74         116   
.text.vPortIncrementTic 0x9d003050           0x74         116   
.text.vLCD_Command      0x9d0030c4           0x74         116   
.text.vParametersWrite  0x9d003138           0x70         112   
.text.vDataInit         0x9d0031a8           0x70         112   
.text.vTaskPlaceOnEvent 0x9d003218           0x70         112   
.text.byCheckSum        0x9d003288           0x70         112   
.text.vDisplayRefused   0x9d0032f8           0x70         112   
.text.prvIsQueueFull    0x9d003368           0x6c         108   
.text.vTaskEnterCritica 0x9d0033d4           0x6c         108   
.text.vTaskChange       0x9d003440           0x6c         108   
.text.vCGInit           0x9d0034ac           0x6c         108   
.text.vListInitialise   0x9d003518           0x68         104   
.text.isGetDiagnostic   0x9d003580           0x68         104   
.text.vTaskSendToDispla 0x9d0035e8           0x68         104   
.text.vLCD_Set_Interfac 0x9d003650           0x68         104   
.text.prvIsQueueEmpty   0x9d0036b8           0x64         100   
.text.decimalDivider    0x9d00371c           0x64         100   
.text.isPayoutStatus    0x9d003780           0x64         100   
.text.memmove           0x9d0037e4           0x64         100   
.text                   0x9d003848           0x64         100  App's exec code 
.text.UART3_ErrorGet    0x9d0038ac           0x60          96   
.text.SYS_Tasks         0x9d00390c           0x60          96   
.text.xTaskGetScheduler 0x9d00396c           0x60          96   
.text.vResetCG          0x9d0039cc           0x60          96   
.text.Delay10us         0x9d003a2c           0x60          96   
.text.sitofp            0x9d003a8c           0x60          96   
.text.I2C1_CallbackRegi 0x9d003aec           0x5c          92   
.text.getAuditValue     0x9d003b48           0x5c          92   
.text.prvGetDisinheritP 0x9d003ba4           0x5c          92   
.text.prvResetNextTaskU 0x9d003c00           0x5c          92   
.text.converT           0x9d003c5c           0x5c          92   
.text.main              0x9d003cb8           0x5c          92   
.text.DRV_AT24_PageWrit 0x9d003d14           0x58          88   
.text.uxPortSetInterrup 0x9d003d6c           0x58          88   
.text.vTaskPlaceOnEvent 0x9d003dc4           0x58          88   
.text.prvIdleTask       0x9d003e1c           0x58          88   
.rodata                 0x9d003e74           0x58          88  Read-only const 
.text.setLedState       0x9d003ecc           0x58          88   
.text.ADC_InterruptHand 0x9d003f24           0x54          84   
.text.NVM_RowWrite      0x9d003f78           0x54          84   
.text.getChannelEnable  0x9d003fcc           0x54          84   
.text.getCoinValue      0x9d004020           0x54          84   
.text.getBillValue      0x9d004074           0x54          84   
.text.isLCDBusy         0x9d0040c8           0x54          84   
.text.setMotorState     0x9d00411c           0x54          84   
.text.main_entry        0x9d004170           0x54          84   
.text.UART3_Initialize  0x9d0041c4           0x50          80   
.text.UART1_Initialize  0x9d004214           0x50          80   
.text.ADC_Handler       0x9d004264           0x50          80   
.text.getIsMotorInUse   0x9d0042b4           0x50          80   
.text.GPIO_PortClear    0x9d004304           0x4c          76   
.text.GPIO_PortInputEna 0x9d004350           0x4c          76   
.text.GPIO_PortOutputEn 0x9d00439c           0x4c          76   
.text.setAuditState     0x9d0043e8           0x4c          76   
.text.vParametersRead   0x9d004434           0x4c          76   
.text.prvDeleteTCB      0x9d004480           0x4c          76   
.text.prvTimerTask      0x9d0044cc           0x4c          76   
.text.vLCD_Enable       0x9d004518           0x4c          76   
.text.setLedEnable      0x9d004564           0x4c          76   
.text.powerCarrouselMot 0x9d0045b0           0x4c          76   
.text.actvateBreakMotor 0x9d0045fc           0x4c          76   
.text.freeMotors        0x9d004648           0x4c          76   
.text                   0x9d004694           0x4c          76  App's exec code 
.text.UART3_WriteByte   0x9d0046e0           0x48          72   
.text.UART1_WriteByte   0x9d004728           0x48          72   
.text.vResetBV          0x9d004770           0x48          72   
.text.setKeyState       0x9d0047b8           0x48          72   
.text.setDoorSwitchStat 0x9d004800           0x48          72   
.text.getLastDir        0x9d004848           0x48          72   
.text._bootstrap_except 0x9d004890           0x48          72   
.vector_default         0x9d0048d8           0x48          72   
.text.EVIC_Initialize   0x9d004920           0x44          68   
.text.GPIO_PortRead     0x9d004964           0x44          68   
.text.UART3_Transmitter 0x9d0049a8           0x44          68   
.text.UART3_TransmitCom 0x9d0049ec           0x44          68   
.text.UART3_ReceiverIsR 0x9d004a30           0x44          68   
.text.UART1_Transmitter 0x9d004a74           0x44          68   
.text.UART1_TransmitCom 0x9d004ab8           0x44          68   
.text.UART1_ReceiverIsR 0x9d004afc           0x44          68   
.text.vApplicationStack 0x9d004b40           0x44          68   
.text.getCoinType       0x9d004b84           0x44          68   
.text.getBillType       0x9d004bc8           0x44          68   
.text                   0x9d004c0c           0x88         136  App's exec code 
.text.I2C1_ErrorGet     0x9d004c94           0x40          64   
.text.NVM_PageErase     0x9d004cd4           0x40          64   
.text.getProductPrice   0x9d004d14           0x40          64   
.text.getEnableState    0x9d004d54           0x40          64   
.text.pvTaskIncrementMu 0x9d004d94           0x40          64   
.text.vLCD_CLEAR        0x9d004dd4           0x40          64   
.text.sendCommand       0x9d004e14           0x40          64   
.text.vTO_DisplaySelect 0x9d004e54           0x40          64   
.text.prvTaskExitError  0x9d004e94           0x3c          60   
.text.vTaskInternalSetT 0x9d004ed0           0x3c          60   
.rodata                 0x9d004f0c           0x3c          60  Read-only const 
.text.getKeyState       0x9d004f48           0x3c          60   
.text.getDoorSwitchStat 0x9d004f84           0x3c          60   
.text.setIsRAZAudit     0x9d004fc0           0x38          56   
.text.vPortClearInterru 0x9d004ff8           0x38          56   
.text.setMDBDecimalPoin 0x9d005030           0x38          56   
.text.setMDBCurrencyDiv 0x9d005068           0x38          56   
.text.setChangeGiverTas 0x9d0050a0           0x38          56   
.text.setIsChangeFinish 0x9d0050d8           0x38          56   
.text.setCoinEnableMask 0x9d005110           0x38          56   
.text.setBV_State       0x9d005148           0x38          56   
.text.setBillEnableMask 0x9d005180           0x38          56   
.text.vTO_Cumul         0x9d0051b8           0x38          56   
.text.DRV_AT24_Status   0x9d0051f0           0x34          52   
.text.NVM_IsBusy        0x9d005224           0x34          52   
.text.vTOPC             0x9d005258           0x34          52   
.text.vNAKTO_MDB        0x9d00528c           0x34          52   
.text.vTO_LCD           0x9d0052c0           0x34          52   
.text.setMainBoardTaskS 0x9d0052f4           0x34          52   
.text.setAmountRequeste 0x9d005328           0x34          52   
.text.setAmountDispo    0x9d00535c           0x34          52   
.text.I2C1_MASTER_Inter 0x9d005390           0x30          48   
.rodata                 0x9d0053c0           0x30          48  Read-only const 
.text.I2C_1_Handler     0x9d0053f0           0x30          48   
.text._MAINBOARD2_Tasks 0x9d005420           0x30          48   
.text.getTOCumul        0x9d005450           0x30          48   
.text.vBVInit           0x9d005480           0x30          48   
.text.vShift_TO         0x9d0054b0           0x30          48   
.text.ADC_Disable       0x9d0054e0           0x2c          44   
.rodata                 0x9d00550c           0x2c          44  Read-only const 
.text.getIsRAZAudit     0x9d005538           0x2c          44   
.text.getAlarmHeater    0x9d005564           0x2c          44   
.text.getAlarmCold      0x9d005590           0x2c          44   
.text.getDelayOverpay   0x9d0055bc           0x2c          44   
.text.vListInitialiseIt 0x9d0055e8           0x2c          44   
.text.vTaskSuspendAll   0x9d005614           0x2c          44   
.text.xTaskGetTickCount 0x9d005640           0x2c          44   
.text.getHandleMDB      0x9d00566c           0x2c          44   
.text.getMDBDecimalPos  0x9d005698           0x2c          44   
.text.getMDBCurrencyDiv 0x9d0056c4           0x2c          44   
.rodata                 0x9d0056f0           0x2c          44  Read-only const 
.text.getChangeTaskHand 0x9d00571c           0x2c          44   
.text.getGCInitialized  0x9d005748           0x2c          44   
.text.getIsChangeFinish 0x9d005774           0x2c          44   
.text.getIsBVInitialize 0x9d0057a0           0x2c          44   
.text.getTemp           0x9d0057cc           0x2c          44   
.text.getShiftState     0x9d0057f8           0x2c          44   
.text.getSelection      0x9d005824           0x2c          44   
.text.clrSelection      0x9d005850           0x2c          44   
.text.clrIsDoorMoved    0x9d00587c           0x2c          44   
.text.getIsDoorMoved    0x9d0058a8           0x2c          44   
.text.getAmountDispo    0x9d0058d4           0x2c          44   
.text.vprintf           0x9d005900           0x2c          44   
.text.RCON_SoftwareRese 0x9d00592c           0x28          40   
.text.UART3_ReadByte    0x9d005954           0x28          40   
.text.UART1_ReadByte    0x9d00597c           0x28          40   
.text.vTaskMissedYield  0x9d0059a4           0x28          40   
.text.getIsMDBChecked   0x9d0059cc           0x28          40   
.text.getADCTaskHandle  0x9d0059f4           0x28          40   
.text.vPortFree         0x9d005a1c           0x24          36   
.text                   0x9d005a40           0x18          24  App's exec code 
.rodata                 0x9d005a58           0x28          40  Read-only const 
.rodata                 0x9d005a80           0x28          40  Read-only const 
.rodata                 0x9d005aa8           0x24          36  Read-only const 
.text.__exception_handl 0x9d005acc            0xc          12   
.rodata                 0x9d005ad8           0x18          24  Read-only const 
.rodata                 0x9d005af0           0x10          16  Read-only const 
.rodata                 0x9d005b00            0x8           8  Read-only const 
.text._on_reset         0x9d005b08            0x8           8   
.text._on_bootstrap     0x9d005b10            0x8           8   
.rodata                 0x9d005b18           0x10          16  Read-only const 
.rodata                 0x9d005b28            0x4           4  Read-only const 
_079835a05e27f1e2       0x9d070000         0x1000        4096   
.text.vfprintf          0x9d071000         0x1ef8        7928   
.text.vTaskCG           0x9d072ef8          0xc08        3080   
.text.MAINBOARD2_Tasks  0x9d073b00          0x970        2416   
.text.vTaskBV           0x9d074470          0x840        2112   
.text.I2C1_TransferSM   0x9d074cb0          0x6d0        1744   
.text.byMDBSendCommand  0x9d075380          0x5fc        1532   
.text.vTaskAudit        0x9d07597c          0x594        1428   
.text.dp32mul           0x9d075f10          0x4b8        1208   
.text.vTaskMoteur       0x9d0763c8          0x474        1140   
.text                   0x9d07683c          0x8bc        2236  App's exec code 
.text                   0x9d0770f8          0x454        1108  App's exec code 
.text.dp32subadd        0x9d07754c          0x430        1072   
.text.vTaskKeyboard     0x9d07797c          0x3b8         952   
.text.dp32mul           0x9d077d34          0x32c         812   
.text.xQueueGenericSend 0x9d078060          0x324         804   
.text.xQueueSemaphoreTa 0x9d078384          0x300         768   
.text._DRV_AT24_Write   0x9d078684          0x2d8         728   
.dinit                  0x9d07895c          0x290         656   
.text.vTaskLed          0x9d078bec          0x288         648   
.text.fpsubadd          0x9d078e74          0x278         632   
.text.xQueueReceive     0x9d0790ec          0x270         624   
.text.prvProcessReceive 0x9d07935c          0x260         608   
.text.DRV_AT24_Read     0x9d0795bc          0x250         592   
.text.vTaskMDB          0x9d07980c          0x250         592   
.text.scale             0x9d079a5c          0x23c         572   
.text.vParamSendToPC    0x9d079c98          0x234         564   
.text.fp32div           0x9d079ecc          0x230         560   
.text.xTaskGenericNotif 0x9d07a0fc          0x218         536   
.text.xTaskIncrementTic 0x9d07a314          0x214         532   
.text.GPIO_Initialize   0x9d07a528          0x200         512   
.text.prvInitialiseNewT 0x9d07a728          0x1f4         500   
.text.vTaskTemperature  0x9d07a91c          0x1ec         492   
.text.xTaskPriorityInhe 0x9d07ab08          0x1d4         468   
.text.vTaskPriorityDisi 0x9d07acdc          0x1cc         460   
.text.fround            0x9d07aea8          0x1cc         460   
.text.prvCopyDataToQueu 0x9d07b074          0x1c8         456   
.text._DRV_AT24_Handler 0x9d07b23c          0x1c4         452   
.text.xTaskResumeAll    0x9d07b400          0x1c4         452   
.text.vKeyboardInit     0x9d07b5c4          0x1c0         448   
.text.fp32mul           0x9d07b784          0x1bc         444   
.ADC_Handler_vector_tex 0x9d07b940          0x1b4         436   
.I2C_1_Handler_vector_t 0x9d07baf4          0x1b4         436   
.text.vTaskSuspend      0x9d07bca8          0x1b4         436   
.text.vTaskPcComm       0x9d07be5c          0x1a4         420   
.text.isGetMDBTubeStatu 0x9d07c000          0x190         400   
.text.vLCDInit          0x9d07c190          0x18c         396   
.text.vParametersGetFro 0x9d07c31c          0x180         384   
.text.prvUnlockQueue    0x9d07c49c          0x17c         380   
.text.xQueueGenericSend 0x9d07c618          0x178         376   
.text.vLCDSetValue      0x9d07c790          0x178         376   
.text.xTaskPriorityDisi 0x9d07c908          0x170         368   
.text.DRV_AT24_Initiali 0x9d07ca78          0x16c         364   
.text.getds18b20Temp    0x9d07cbe4          0x16c         364   
.text                   0x9d07cd50          0x168         360  App's exec code 
.text.xQueueGenericRese 0x9d07ceb8          0x160         352   
.text.vTaskNotifyGiveFr 0x9d07d018          0x160         352   
.rodata                 0x9d07d178          0x2c0         704  Read-only const 
.text.vTaskSwitchContex 0x9d07d438          0x15c         348   
.text.prvAddNewTaskToRe 0x9d07d594          0x154         340   
.text.vHD44780Init      0x9d07d6e8          0x154         340   
.text.vTaskDelayUntil   0x9d07d83c          0x14c         332   
.text.vVMCAcknowledge   0x9d07d988          0x14c         332   
.text.setLedChase       0x9d07dad4          0x14c         332   
.text.fputc             0x9d07dc20          0x144         324   
.text.prvAddCurrentTask 0x9d07dd64          0x140         320   
.text.CLK_Initialize    0x9d07dea4          0x13c         316   
.text.prvSwitchTimerLis 0x9d07dfe0          0x138         312   
.text.prvProcessTimerOr 0x9d07e118          0x12c         300   
.text._flsbuf           0x9d07e244          0x12c         300   
.text.dpcmp             0x9d07e370          0x12c         300   
.text.vReset            0x9d07e49c          0x128         296   
.text.xTaskRemoveFromEv 0x9d07e5c4          0x124         292   
.text.I2C1_WriteRead    0x9d07e6e8          0x120         288   
.text.I2C1_Read         0x9d07e808          0x118         280   
.text.vTaskResume       0x9d07e920          0x118         280   
.text.byGetLCDAddressCo 0x9d07ea38          0x118         280   
.text.I2C1_Write        0x9d07eb50          0x114         276   
.text.xTaskCreate       0x9d07ec64          0x114         276   
.text.xTaskCheckForTime 0x9d07ed78          0x114         276   
.text.prvInsertTimerInA 0x9d07ee8c          0x114         276   
.rodata                 0x9d07efa0          0x10c         268  Read-only const 
.text.xTimerGenericComm 0x9d07f0ac          0x108         264   
.rodata                 0x9d07f1b4          0x104         260  Read-only const 
.text.pxPortInitialiseS 0x9d07f2b8           0xf8         248   
.text.ulTaskNotifyTake  0x9d07f3b0           0xf8         248   
.text.vMDBInit          0x9d07f4a8           0xf8         248   
.text.vTaskTrapSecurity 0x9d07f5a0           0xf8         248   
.rodata                 0x9d07f698           0xf8         248  Read-only const 
.text.UART3_Read        0x9d07f790           0xf0         240   
.text.prvNotifyQueueSet 0x9d07f880           0xf0         240   
.text.vListInsert       0x9d07f970           0xec         236   
.text.prvProcessExpired 0x9d07fa5c           0xec         236   
.text.__fixdfdi         0x9d07fb48           0xe8         232   
.text.prvInitialiseTask 0x9d07fc30           0xe0         224   
.text.SYS_Initialize    0x9d07fd10           0xdc         220   
.text.pvPortMalloc      0x9d07fdec           0xdc         220   
.text.vADCInit          0x9d07fec8           0xdc         220   
.text.DRV_AT24_Transfer 0x9d07ffa4           0x5c          92   
      Total kseg0_program_mem used  :     0x15b2c       88876  17.0% of 0x80000

kseg0 Boot-Memory Usage
section                    address  length [bytes]      (dec)  Description
-------                 ----------  -------------------------  -----------
         Total kseg0_boot_mem used  :           0           0  <1% of 0x970

Exception-Memory Usage 
section                    address  length [bytes]      (dec)  Description
-------                 ----------  -------------------------  -----------
.app_excpt              0x9fc01180           0x10          16  General-Exception 
.vector_0               0x9fc01200            0x8           8  Interrupt Vector 0 
.vector_1               0x9fc01220            0x8           8  Interrupt Vector 1 
.vector_2               0x9fc01240            0x8           8  Interrupt Vector 2 
.vector_3               0x9fc01260            0x8           8  Interrupt Vector 3 
.vector_4               0x9fc01280            0x8           8  Interrupt Vector 4 
.vector_5               0x9fc012a0            0x8           8  Interrupt Vector 5 
.vector_6               0x9fc012c0            0x8           8  Interrupt Vector 6 
.vector_7               0x9fc012e0            0x8           8  Interrupt Vector 7 
.vector_8               0x9fc01300            0x8           8  Interrupt Vector 8 
.vector_9               0x9fc01320            0x8           8  Interrupt Vector 9 
.vector_10              0x9fc01340            0x8           8  Interrupt Vector 10 
.vector_11              0x9fc01360            0x8           8  Interrupt Vector 11 
.vector_12              0x9fc01380            0x8           8  Interrupt Vector 12 
.vector_13              0x9fc013a0            0x8           8  Interrupt Vector 13 
.vector_14              0x9fc013c0            0x8           8  Interrupt Vector 14 
.vector_15              0x9fc013e0            0x8           8  Interrupt Vector 15 
.vector_16              0x9fc01400            0x8           8  Interrupt Vector 16 
.vector_17              0x9fc01420            0x8           8  Interrupt Vector 17 
.vector_18              0x9fc01440            0x8           8  Interrupt Vector 18 
.vector_19              0x9fc01460            0x8           8  Interrupt Vector 19 
.vector_20              0x9fc01480            0x8           8  Interrupt Vector 20 
.vector_21              0x9fc014a0            0x8           8  Interrupt Vector 21 
.vector_22              0x9fc014c0            0x8           8  Interrupt Vector 22 
.vector_23              0x9fc014e0           0x10          16  Interrupt Vector 23 
.vector_24              0x9fc01500            0x8           8  Interrupt Vector 24 
.vector_25              0x9fc01520            0x8           8  Interrupt Vector 25 
.vector_26              0x9fc01540            0x8           8  Interrupt Vector 26 
.vector_27              0x9fc01560            0x8           8  Interrupt Vector 27 
.vector_28              0x9fc01580            0x8           8  Interrupt Vector 28 
.vector_29              0x9fc015a0            0x8           8  Interrupt Vector 29 
.vector_30              0x9fc015c0            0x8           8  Interrupt Vector 30 
.vector_31              0x9fc015e0            0x8           8  Interrupt Vector 31 
.vector_32              0x9fc01600           0x10          16  Interrupt Vector 32 
.vector_33              0x9fc01620            0x8           8  Interrupt Vector 33 
.vector_34              0x9fc01640            0x8           8  Interrupt Vector 34 
.vector_35              0x9fc01660            0x8           8  Interrupt Vector 35 
.vector_36              0x9fc01680            0x8           8  Interrupt Vector 36 
.vector_37              0x9fc016a0            0x8           8  Interrupt Vector 37 
.vector_38              0x9fc016c0            0x8           8  Interrupt Vector 38 
.vector_39              0x9fc016e0            0x8           8  Interrupt Vector 39 
.vector_40              0x9fc01700            0x8           8  Interrupt Vector 40 
.vector_41              0x9fc01720            0x8           8  Interrupt Vector 41 
.vector_42              0x9fc01740            0x8           8  Interrupt Vector 42 
.vector_43              0x9fc01760            0x8           8  Interrupt Vector 43 
.vector_44              0x9fc01780            0x8           8  Interrupt Vector 44 
.vector_45              0x9fc017a0            0x8           8  Interrupt Vector 45 
          Total exception_mem used  :       0x190         400  9.8% of 0x1000

kseg1 Boot-Memory Usage
section                    address  length [bytes]      (dec)  Description
-------                 ----------  -------------------------  -----------
.reset                  0xbfc00000          0x19c         412  Reset handler 
.bev_excpt              0xbfc00380           0x10          16  BEV-Exception 
         Total kseg1_boot_mem used  :       0x1ac         428  36.6% of 0x490
        --------------------------------------------------------------------------
         Total Program Memory used  :     0x15e68       89704  16.9% of 0x81e00
        --------------------------------------------------------------------------


kseg0 Data-Memory Usage
section                    address  length [bytes]      (dec)  Description
-------                 ----------  -------------------------  -----------
reserve_data_0_kseg0    0x80000000          0x200         512   
         Total kseg0_data_mem used  :       0x200         512  100.0% of 0x200

kseg1 Data-Memory Usage
section                    address  length [bytes]      (dec)  Description
-------                 ----------  -------------------------  -----------
reserve_data_0_kseg1    0xa0000000          0x200         512   
.sdata                  0xa0000200            0xc          12  Small init data 
.sbss                   0xa000020c           0x94         148  Small uninit data 
.bss                    0xa00002a0          0x2b8         696  Uninitialized data 
.bss                    0xa0000558        0x14468       83048  Uninitialized data 
.bss                    0xa00149c0          0x1a4         420  Uninitialized data 
.data                   0xa0014b64           0xa4         164  Initialized data 
.bss                    0xa0014c08          0x11c         284  Uninitialized data 
.data                   0xa0014d24           0x4c          76  Initialized data 
.bss                    0xa0014d70           0x6c         108  Uninitialized data 
.bss                    0xa0014ddc           0x40          64  Uninitialized data 
.bss                    0xa0014e1c            0xc          12  Uninitialized data 
         Total kseg1_data_mem used  :     0x14e28       85544  65.3% of 0x20000
        --------------------------------------------------------------------------
            Total Data Memory used  :     0x15028       86056  65.4% of 0x20200
        --------------------------------------------------------------------------


Dynamic Data-Memory Reservation
section                    address  length [bytes]      (dec)  Description
-------                 ----------  -------------------------  -----------
heap                    0xa0014e30          0x200         512  Reserved for heap 
stack                   0xa0015048         0xafb0       44976  Reserved for stack 

        --------------------------------------------------------------------------

Discarded input sections

 .text          0x00000000        0x0 d:/program files (x86)/microchip/xc32/v2.30/bin/bin/../../lib/gcc/pic32mx/4.8.3/../../../../pic32mx/lib\software-debug-break.o
 .data          0x00000000        0x0 d:/program files (x86)/microchip/xc32/v2.30/bin/bin/../../lib/gcc/pic32mx/4.8.3/../../../../pic32mx/lib\software-debug-break.o
 .bss           0x00000000        0x0 d:/program files (x86)/microchip/xc32/v2.30/bin/bin/../../lib/gcc/pic32mx/4.8.3/../../../../pic32mx/lib\software-debug-break.o
 .text          0x00000000        0x0 build/default/debug/_ext/897820976/drv_at24.o
 .data          0x00000000        0x0 build/default/debug/_ext/897820976/drv_at24.o
 .reginfo       0x00000000       0x18 build/default/debug/_ext/897820976/drv_at24.o
 .text.DRV_AT24_Close
                0x00000000       0x5c build/default/debug/_ext/897820976/drv_at24.o
 .text.DRV_AT24_EventHandlerSet
                0x00000000       0x80 build/default/debug/_ext/897820976/drv_at24.o
 .text.DRV_AT24_GeometryGet
                0x00000000      0x110 build/default/debug/_ext/897820976/drv_at24.o
 .text          0x00000000        0x0 build/default/debug/_ext/60163342/plib_adc.o
 .data          0x00000000        0x0 build/default/debug/_ext/60163342/plib_adc.o
 .bss           0x00000000        0x0 build/default/debug/_ext/60163342/plib_adc.o
 .reginfo       0x00000000       0x18 build/default/debug/_ext/60163342/plib_adc.o
 .text.ADC_Enable
                0x00000000       0x2c build/default/debug/_ext/60163342/plib_adc.o
 .text.ADC_SamplingStart
                0x00000000       0x38 build/default/debug/_ext/60163342/plib_adc.o
 .text.ADC_ConversionStart
                0x00000000       0x2c build/default/debug/_ext/60163342/plib_adc.o
 .text.ADC_InputSelect
                0x00000000       0xbc build/default/debug/_ext/60163342/plib_adc.o
 .text.ADC_InputScanSelect
                0x00000000       0x30 build/default/debug/_ext/60163342/plib_adc.o
 .text.ADC_ResultIsReady
                0x00000000       0x38 build/default/debug/_ext/60163342/plib_adc.o
 .text.ADC_ResultGet
                0x00000000       0x40 build/default/debug/_ext/60163342/plib_adc.o
 .text.ADC_CallbackRegister
                0x00000000       0x38 build/default/debug/_ext/60163342/plib_adc.o
 .text          0x00000000        0x0 build/default/debug/_ext/60165520/plib_clk.o
 .data          0x00000000        0x0 build/default/debug/_ext/60165520/plib_clk.o
 .bss           0x00000000        0x0 build/default/debug/_ext/60165520/plib_clk.o
 .reginfo       0x00000000       0x18 build/default/debug/_ext/60165520/plib_clk.o
 .text          0x00000000        0x0 build/default/debug/_ext/1865200349/plib_evic.o
 .data          0x00000000        0x0 build/default/debug/_ext/1865200349/plib_evic.o
 .bss           0x00000000        0x0 build/default/debug/_ext/1865200349/plib_evic.o
 .reginfo       0x00000000       0x18 build/default/debug/_ext/1865200349/plib_evic.o
 .text.EVIC_SourceEnable
                0x00000000       0x84 build/default/debug/_ext/1865200349/plib_evic.o
 .text.EVIC_SourceDisable
                0x00000000       0x84 build/default/debug/_ext/1865200349/plib_evic.o
 .text.EVIC_SourceIsEnabled
                0x00000000       0x7c build/default/debug/_ext/1865200349/plib_evic.o
 .text.EVIC_SourceStatusGet
                0x00000000       0x7c build/default/debug/_ext/1865200349/plib_evic.o
 .text.EVIC_SourceStatusSet
                0x00000000       0x84 build/default/debug/_ext/1865200349/plib_evic.o
 .text.EVIC_SourceStatusClear
                0x00000000       0x84 build/default/debug/_ext/1865200349/plib_evic.o
 .text          0x00000000        0x0 build/default/debug/_ext/1865254177/plib_gpio.o
 .data          0x00000000        0x0 build/default/debug/_ext/1865254177/plib_gpio.o
 .bss           0x00000000        0x0 build/default/debug/_ext/1865254177/plib_gpio.o
 .reginfo       0x00000000       0x18 build/default/debug/_ext/1865254177/plib_gpio.o
 .text.GPIO_PortLatchRead
                0x00000000       0x44 build/default/debug/_ext/1865254177/plib_gpio.o
 .text.GPIO_PortSet
                0x00000000       0x4c build/default/debug/_ext/1865254177/plib_gpio.o
 .text.GPIO_PortToggle
                0x00000000       0x4c build/default/debug/_ext/1865254177/plib_gpio.o
 .text          0x00000000        0x0 build/default/debug/_ext/60169480/plib_i2c1.o
 .data          0x00000000        0x0 build/default/debug/_ext/60169480/plib_i2c1.o
 .reginfo       0x00000000       0x18 build/default/debug/_ext/60169480/plib_i2c1.o
 .text.I2C1_TransferSetup
                0x00000000      0x18c build/default/debug/_ext/60169480/plib_i2c1.o
 .rodata        0x00000000        0xc build/default/debug/_ext/60169480/plib_i2c1.o
 .text          0x00000000        0x0 build/default/debug/_ext/60176403/plib_nvm.o
 .data          0x00000000        0x0 build/default/debug/_ext/60176403/plib_nvm.o
 .bss           0x00000000        0x0 build/default/debug/_ext/60176403/plib_nvm.o
 .reginfo       0x00000000       0x18 build/default/debug/_ext/60176403/plib_nvm.o
 .text.NVM_Read
                0x00000000       0x58 build/default/debug/_ext/60176403/plib_nvm.o
 .text.NVM_WordWrite
                0x00000000       0x50 build/default/debug/_ext/60176403/plib_nvm.o
 .text.NVM_ErrorGet
                0x00000000       0x34 build/default/debug/_ext/60176403/plib_nvm.o
 .text          0x00000000        0x0 build/default/debug/_ext/1865569570/plib_rcon.o
 .data          0x00000000        0x0 build/default/debug/_ext/1865569570/plib_rcon.o
 .bss           0x00000000        0x0 build/default/debug/_ext/1865569570/plib_rcon.o
 .reginfo       0x00000000       0x18 build/default/debug/_ext/1865569570/plib_rcon.o
 .text.RCON_ResetCauseGet
                0x00000000       0x28 build/default/debug/_ext/1865569570/plib_rcon.o
 .text.RCON_ResetCauseClear
                0x00000000       0x30 build/default/debug/_ext/1865569570/plib_rcon.o
 .text          0x00000000        0x0 build/default/debug/_ext/1865657120/plib_uart3.o
 .data          0x00000000        0x0 build/default/debug/_ext/1865657120/plib_uart3.o
 .bss           0x00000000        0x0 build/default/debug/_ext/1865657120/plib_uart3.o
 .reginfo       0x00000000       0x18 build/default/debug/_ext/1865657120/plib_uart3.o
 .text.UART3_SerialSetup
                0x00000000      0x24c build/default/debug/_ext/1865657120/plib_uart3.o
 .text          0x00000000        0x0 build/default/debug/_ext/1865657120/plib_uart1.o
 .data          0x00000000        0x0 build/default/debug/_ext/1865657120/plib_uart1.o
 .bss           0x00000000        0x0 build/default/debug/_ext/1865657120/plib_uart1.o
 .reginfo       0x00000000       0x18 build/default/debug/_ext/1865657120/plib_uart1.o
 .text.UART1_ErrorClear
                0x00000000       0xa0 build/default/debug/_ext/1865657120/plib_uart1.o
 .text.UART1_SerialSetup
                0x00000000      0x24c build/default/debug/_ext/1865657120/plib_uart1.o
 .text.UART1_Read
                0x00000000       0xf0 build/default/debug/_ext/1865657120/plib_uart1.o
 .text.UART1_Write
                0x00000000       0xa8 build/default/debug/_ext/1865657120/plib_uart1.o
 .text.UART1_ErrorGet
                0x00000000       0x60 build/default/debug/_ext/1865657120/plib_uart1.o
 .text          0x00000000        0x0 build/default/debug/_ext/14461671/sys_dma.o
 .data          0x00000000        0x0 build/default/debug/_ext/14461671/sys_dma.o
 .bss           0x00000000        0x0 build/default/debug/_ext/14461671/sys_dma.o
 .reginfo       0x00000000       0x18 build/default/debug/_ext/14461671/sys_dma.o
 .text.SYS_DMA_AddressingModeSetup
                0x00000000       0x34 build/default/debug/_ext/14461671/sys_dma.o
 .text.SYS_DMA_DataWidthSetup
                0x00000000       0x30 build/default/debug/_ext/14461671/sys_dma.o
 .text.SYS_DMA_ChannelTransfer
                0x00000000       0x38 build/default/debug/_ext/14461671/sys_dma.o
 .text          0x00000000        0x0 build/default/debug/_ext/1881668453/sys_int.o
 .data          0x00000000        0x0 build/default/debug/_ext/1881668453/sys_int.o
 .bss           0x00000000        0x0 build/default/debug/_ext/1881668453/sys_int.o
 .reginfo       0x00000000       0x18 build/default/debug/_ext/1881668453/sys_int.o
 .text.SYS_INT_Enable
                0x00000000       0x2c build/default/debug/_ext/1881668453/sys_int.o
 .text.SYS_INT_Disable
                0x00000000       0x48 build/default/debug/_ext/1881668453/sys_int.o
 .text.SYS_INT_Restore
                0x00000000       0x40 build/default/debug/_ext/1881668453/sys_int.o
 .text.SYS_INT_SourceDisable
                0x00000000       0x80 build/default/debug/_ext/1881668453/sys_int.o
 .text.SYS_INT_SourceRestore
                0x00000000       0x54 build/default/debug/_ext/1881668453/sys_int.o
 .text          0x00000000        0x0 build/default/debug/_ext/1171490990/initialization.o
 .data          0x00000000        0x0 build/default/debug/_ext/1171490990/initialization.o
 .bss           0x00000000        0x0 build/default/debug/_ext/1171490990/initialization.o
 .reginfo       0x00000000       0x18 build/default/debug/_ext/1171490990/initialization.o
 .text          0x00000000        0x0 build/default/debug/_ext/1171490990/interrupts.o
 .data          0x00000000        0x0 build/default/debug/_ext/1171490990/interrupts.o
 .bss           0x00000000        0x0 build/default/debug/_ext/1171490990/interrupts.o
 .reginfo       0x00000000       0x18 build/default/debug/_ext/1171490990/interrupts.o
 .text          0x00000000        0x0 build/default/debug/_ext/1171490990/interrupts_a.o
 .data          0x00000000        0x0 build/default/debug/_ext/1171490990/interrupts_a.o
 .bss           0x00000000        0x0 build/default/debug/_ext/1171490990/interrupts_a.o
 .reginfo       0x00000000       0x18 build/default/debug/_ext/1171490990/interrupts_a.o
 .text          0x00000000        0x0 build/default/debug/_ext/1171490990/exceptions.o
 .bss           0x00000000        0x0 build/default/debug/_ext/1171490990/exceptions.o
 .reginfo       0x00000000       0x18 build/default/debug/_ext/1171490990/exceptions.o
 .text          0x00000000        0x0 build/default/debug/_ext/1171490990/freertos_hooks.o
 .data          0x00000000        0x0 build/default/debug/_ext/1171490990/freertos_hooks.o
 .bss           0x00000000        0x0 build/default/debug/_ext/1171490990/freertos_hooks.o
 .reginfo       0x00000000       0x18 build/default/debug/_ext/1171490990/freertos_hooks.o
 .text.vApplicationMallocFailedHook
                0x00000000       0x3c build/default/debug/_ext/1171490990/freertos_hooks.o
 .text.vApplicationIdleHook
                0x00000000       0x20 build/default/debug/_ext/1171490990/freertos_hooks.o
 .text.vApplicationTickHook
                0x00000000       0x20 build/default/debug/_ext/1171490990/freertos_hooks.o
 .text.vAssertCalled
                0x00000000       0x58 build/default/debug/_ext/1171490990/freertos_hooks.o
 .text          0x00000000        0x0 build/default/debug/_ext/1171490990/tasks.o
 .data          0x00000000        0x0 build/default/debug/_ext/1171490990/tasks.o
 .bss           0x00000000        0x0 build/default/debug/_ext/1171490990/tasks.o
 .reginfo       0x00000000       0x18 build/default/debug/_ext/1171490990/tasks.o
 .text          0x00000000        0x0 build/default/debug/_ext/1360937237/audits.o
 .data          0x00000000        0x0 build/default/debug/_ext/1360937237/audits.o
 .reginfo       0x00000000       0x18 build/default/debug/_ext/1360937237/audits.o
 .text          0x00000000        0x0 build/default/debug/_ext/1360937237/parameters.o
 .data          0x00000000        0x0 build/default/debug/_ext/1360937237/parameters.o
 .reginfo       0x00000000       0x18 build/default/debug/_ext/1360937237/parameters.o
 .text          0x00000000        0x0 build/default/debug/_ext/1360937237/dataCommun.o
 .data          0x00000000        0x0 build/default/debug/_ext/1360937237/dataCommun.o
 .bss           0x00000000        0x0 build/default/debug/_ext/1360937237/dataCommun.o
 .reginfo       0x00000000       0x18 build/default/debug/_ext/1360937237/dataCommun.o
 .text          0x00000000        0x0 build/default/debug/_ext/1665200909/heap_1.o
 .data          0x00000000        0x0 build/default/debug/_ext/1665200909/heap_1.o
 .reginfo       0x00000000       0x18 build/default/debug/_ext/1665200909/heap_1.o
 .text.vPortInitialiseBlocks
                0x00000000       0x24 build/default/debug/_ext/1665200909/heap_1.o
 .text.xPortGetFreeHeapSize
                0x00000000       0x30 build/default/debug/_ext/1665200909/heap_1.o
 .text          0x00000000        0x0 build/default/debug/_ext/951553248/port.o
 .data          0x00000000        0x0 build/default/debug/_ext/951553248/port.o
 .reginfo       0x00000000       0x18 build/default/debug/_ext/951553248/port.o
 .text.vPortEndScheduler
                0x00000000       0x20 build/default/debug/_ext/951553248/port.o
 .data          0x00000000        0x0 build/default/debug/_ext/951553248/port_asm.o
 .bss           0x00000000        0x0 build/default/debug/_ext/951553248/port_asm.o
 .reginfo       0x00000000       0x18 build/default/debug/_ext/951553248/port_asm.o
 .text          0x00000000        0x0 build/default/debug/_ext/404212886/croutine.o
 .data          0x00000000        0x0 build/default/debug/_ext/404212886/croutine.o
 .bss           0x00000000        0x0 build/default/debug/_ext/404212886/croutine.o
 .reginfo       0x00000000       0x18 build/default/debug/_ext/404212886/croutine.o
 .text          0x00000000        0x0 build/default/debug/_ext/404212886/list.o
 .data          0x00000000        0x0 build/default/debug/_ext/404212886/list.o
 .bss           0x00000000        0x0 build/default/debug/_ext/404212886/list.o
 .reginfo       0x00000000       0x18 build/default/debug/_ext/404212886/list.o
 .text          0x00000000        0x0 build/default/debug/_ext/404212886/queue.o
 .data          0x00000000        0x0 build/default/debug/_ext/404212886/queue.o
 .bss           0x00000000        0x0 build/default/debug/_ext/404212886/queue.o
 .reginfo       0x00000000       0x18 build/default/debug/_ext/404212886/queue.o
 .text.prvInitialiseMutex
                0x00000000       0x68 build/default/debug/_ext/404212886/queue.o
 .text.xQueueCreateMutex
                0x00000000       0x68 build/default/debug/_ext/404212886/queue.o
 .text.xQueueCreateCountingSemaphore
                0x00000000       0x64 build/default/debug/_ext/404212886/queue.o
 .text.xQueueGiveFromISR
                0x00000000      0x164 build/default/debug/_ext/404212886/queue.o
 .text.xQueuePeek
                0x00000000      0x278 build/default/debug/_ext/404212886/queue.o
 .text.xQueueReceiveFromISR
                0x00000000      0x124 build/default/debug/_ext/404212886/queue.o
 .text.xQueuePeekFromISR
                0x00000000       0xa0 build/default/debug/_ext/404212886/queue.o
 .text.uxQueueMessagesWaiting
                0x00000000       0x4c build/default/debug/_ext/404212886/queue.o
 .text.uxQueueSpacesAvailable
                0x00000000       0x60 build/default/debug/_ext/404212886/queue.o
 .text.uxQueueMessagesWaitingFromISR
                0x00000000       0x3c build/default/debug/_ext/404212886/queue.o
 .text.vQueueDelete
                0x00000000       0x4c build/default/debug/_ext/404212886/queue.o
 .text.xQueueIsQueueEmptyFromISR
                0x00000000       0x54 build/default/debug/_ext/404212886/queue.o
 .text.xQueueIsQueueFullFromISR
                0x00000000       0x5c build/default/debug/_ext/404212886/queue.o
 .text.pcQueueGetName
                0x00000000       0x9c build/default/debug/_ext/404212886/queue.o
 .text.vQueueUnregisterQueue
                0x00000000       0xa8 build/default/debug/_ext/404212886/queue.o
 .text.xQueueCreateSet
                0x00000000       0x48 build/default/debug/_ext/404212886/queue.o
 .text.xQueueAddToSet
                0x00000000       0x90 build/default/debug/_ext/404212886/queue.o
 .text.xQueueRemoveFromSet
                0x00000000       0x98 build/default/debug/_ext/404212886/queue.o
 .text.xQueueSelectFromSet
                0x00000000       0x50 build/default/debug/_ext/404212886/queue.o
 .text.xQueueSelectFromSetFromISR
                0x00000000       0x4c build/default/debug/_ext/404212886/queue.o
 .text          0x00000000        0x0 build/default/debug/_ext/404212886/FreeRTOS_tasks.o
 .data          0x00000000        0x0 build/default/debug/_ext/404212886/FreeRTOS_tasks.o
 .bss           0x00000000        0x0 build/default/debug/_ext/404212886/FreeRTOS_tasks.o
 .reginfo       0x00000000       0x18 build/default/debug/_ext/404212886/FreeRTOS_tasks.o
 .text.vTaskDelete
                0x00000000      0x190 build/default/debug/_ext/404212886/FreeRTOS_tasks.o
 .text.vTaskPrioritySet
                0x00000000      0x240 build/default/debug/_ext/404212886/FreeRTOS_tasks.o
 .text.xTaskResumeFromISR
                0x00000000      0x124 build/default/debug/_ext/404212886/FreeRTOS_tasks.o
 .text.vTaskEndScheduler
                0x00000000       0x58 build/default/debug/_ext/404212886/FreeRTOS_tasks.o
 .text.xTaskGetTickCountFromISR
                0x00000000       0x30 build/default/debug/_ext/404212886/FreeRTOS_tasks.o
 .text.uxTaskGetNumberOfTasks
                0x00000000       0x24 build/default/debug/_ext/404212886/FreeRTOS_tasks.o
 .text.pcTaskGetName
                0x00000000       0x4c build/default/debug/_ext/404212886/FreeRTOS_tasks.o
 .text.vTaskPlaceOnUnorderedEventList
                0x00000000       0x70 build/default/debug/_ext/404212886/FreeRTOS_tasks.o
 .text.vTaskRemoveFromUnorderedEventList
                0x00000000       0xe8 build/default/debug/_ext/404212886/FreeRTOS_tasks.o
 .text.vTaskSetTimeOutState
                0x00000000       0x54 build/default/debug/_ext/404212886/FreeRTOS_tasks.o
 .text.xTaskGetCurrentTaskHandle
                0x00000000       0x2c build/default/debug/_ext/404212886/FreeRTOS_tasks.o
 .text.uxTaskResetEventItemValue
                0x00000000       0x48 build/default/debug/_ext/404212886/FreeRTOS_tasks.o
 .text.xTaskNotifyWait
                0x00000000      0x13c build/default/debug/_ext/404212886/FreeRTOS_tasks.o
 .text.xTaskGenericNotifyFromISR
                0x00000000      0x250 build/default/debug/_ext/404212886/FreeRTOS_tasks.o
 .text.xTaskNotifyStateClear
                0x00000000       0x94 build/default/debug/_ext/404212886/FreeRTOS_tasks.o
 .text          0x00000000        0x0 build/default/debug/_ext/404212886/timers.o
 .data          0x00000000        0x0 build/default/debug/_ext/404212886/timers.o
 .reginfo       0x00000000       0x18 build/default/debug/_ext/404212886/timers.o
 .text.xTimerGetTimerDaemonTaskHandle
                0x00000000       0x24 build/default/debug/_ext/404212886/timers.o
 .text.xTimerGetPeriod
                0x00000000       0x34 build/default/debug/_ext/404212886/timers.o
 .text.vTimerSetReloadMode
                0x00000000       0x8c build/default/debug/_ext/404212886/timers.o
 .text.xTimerGetExpiryTime
                0x00000000       0x3c build/default/debug/_ext/404212886/timers.o
 .text.pcTimerGetName
                0x00000000       0x34 build/default/debug/_ext/404212886/timers.o
 .text.xTimerIsTimerActive
                0x00000000       0x70 build/default/debug/_ext/404212886/timers.o
 .text.pvTimerGetTimerID
                0x00000000       0x54 build/default/debug/_ext/404212886/timers.o
 .text.vTimerSetTimerID
                0x00000000       0x54 build/default/debug/_ext/404212886/timers.o
 .text          0x00000000        0x0 build/default/debug/_ext/404212886/event_groups.o
 .data          0x00000000        0x0 build/default/debug/_ext/404212886/event_groups.o
 .bss           0x00000000        0x0 build/default/debug/_ext/404212886/event_groups.o
 .reginfo       0x00000000       0x18 build/default/debug/_ext/404212886/event_groups.o
 .text.xEventGroupCreate
                0x00000000       0x64 build/default/debug/_ext/404212886/event_groups.o
 .text.xEventGroupSync
                0x00000000      0x1e0 build/default/debug/_ext/404212886/event_groups.o
 .text.xEventGroupWaitBits
                0x00000000      0x220 build/default/debug/_ext/404212886/event_groups.o
 .text.xEventGroupClearBits
                0x00000000       0x74 build/default/debug/_ext/404212886/event_groups.o
 .text.xEventGroupGetBitsFromISR
                0x00000000       0x5c build/default/debug/_ext/404212886/event_groups.o
 .text.xEventGroupSetBits
                0x00000000      0x1b4 build/default/debug/_ext/404212886/event_groups.o
 .text.vEventGroupDelete
                0x00000000       0x8c build/default/debug/_ext/404212886/event_groups.o
 .text.vEventGroupSetBitsCallback
                0x00000000       0x40 build/default/debug/_ext/404212886/event_groups.o
 .text.vEventGroupClearBitsCallback
                0x00000000       0x40 build/default/debug/_ext/404212886/event_groups.o
 .text.prvTestWaitCondition
                0x00000000       0x84 build/default/debug/_ext/404212886/event_groups.o
 .text          0x00000000        0x0 build/default/debug/_ext/404212886/stream_buffer.o
 .data          0x00000000        0x0 build/default/debug/_ext/404212886/stream_buffer.o
 .bss           0x00000000        0x0 build/default/debug/_ext/404212886/stream_buffer.o
 .reginfo       0x00000000       0x18 build/default/debug/_ext/404212886/stream_buffer.o
 .text.xStreamBufferGenericCreate
                0x00000000       0xc8 build/default/debug/_ext/404212886/stream_buffer.o
 .text.vStreamBufferDelete
                0x00000000       0x70 build/default/debug/_ext/404212886/stream_buffer.o
 .text.xStreamBufferReset
                0x00000000       0xac build/default/debug/_ext/404212886/stream_buffer.o
 .text.xStreamBufferSetTriggerLevel
                0x00000000       0x80 build/default/debug/_ext/404212886/stream_buffer.o
 .text.xStreamBufferSpacesAvailable
                0x00000000       0x94 build/default/debug/_ext/404212886/stream_buffer.o
 .text.xStreamBufferBytesAvailable
                0x00000000       0x48 build/default/debug/_ext/404212886/stream_buffer.o
 .text.xStreamBufferSend
                0x00000000      0x1f0 build/default/debug/_ext/404212886/stream_buffer.o
 .text.xStreamBufferSendFromISR
                0x00000000      0x128 build/default/debug/_ext/404212886/stream_buffer.o
 .text.prvWriteMessageToBuffer
                0x00000000      0x104 build/default/debug/_ext/404212886/stream_buffer.o
 .text.xStreamBufferReceive
                0x00000000      0x1b8 build/default/debug/_ext/404212886/stream_buffer.o
 .text.xStreamBufferNextMessageLengthBytes
                0x00000000       0xc0 build/default/debug/_ext/404212886/stream_buffer.o
 .text.xStreamBufferReceiveFromISR
                0x00000000      0x11c build/default/debug/_ext/404212886/stream_buffer.o
 .text.prvReadMessageFromBuffer
                0x00000000       0xd8 build/default/debug/_ext/404212886/stream_buffer.o
 .text.xStreamBufferIsEmpty
                0x00000000       0x64 build/default/debug/_ext/404212886/stream_buffer.o
 .text.xStreamBufferIsFull
                0x00000000       0x94 build/default/debug/_ext/404212886/stream_buffer.o
 .text.xStreamBufferSendCompletedFromISR
                0x00000000       0xa8 build/default/debug/_ext/404212886/stream_buffer.o
 .text.xStreamBufferReceiveCompletedFromISR
                0x00000000       0xa8 build/default/debug/_ext/404212886/stream_buffer.o
 .text.prvWriteBytesToBuffer
                0x00000000      0x114 build/default/debug/_ext/404212886/stream_buffer.o
 .text.prvReadBytesFromBuffer
                0x00000000      0x13c build/default/debug/_ext/404212886/stream_buffer.o
 .text.prvBytesInBuffer
                0x00000000       0x80 build/default/debug/_ext/404212886/stream_buffer.o
 .text.prvInitialiseNewStreamBuffer
                0x00000000       0x7c build/default/debug/_ext/404212886/stream_buffer.o
 .text          0x00000000        0x0 build/default/debug/_ext/659830161/MDB.o
 .data          0x00000000        0x0 build/default/debug/_ext/659830161/MDB.o
 .bss           0x00000000        0x0 build/default/debug/_ext/659830161/MDB.o
 .reginfo       0x00000000       0x18 build/default/debug/_ext/659830161/MDB.o
 .text          0x00000000        0x0 build/default/debug/_ext/659830161/MDB_CG.o
 .data          0x00000000        0x0 build/default/debug/_ext/659830161/MDB_CG.o
 .bss           0x00000000        0x0 build/default/debug/_ext/659830161/MDB_CG.o
 .reginfo       0x00000000       0x18 build/default/debug/_ext/659830161/MDB_CG.o
 .text          0x00000000        0x0 build/default/debug/_ext/659830161/MDB_BV.o
 .data          0x00000000        0x0 build/default/debug/_ext/659830161/MDB_BV.o
 .bss           0x00000000        0x0 build/default/debug/_ext/659830161/MDB_BV.o
 .reginfo       0x00000000       0x18 build/default/debug/_ext/659830161/MDB_BV.o
 .text.getBillEnableMask
                0x00000000       0x2c build/default/debug/_ext/659830161/MDB_BV.o
 .text          0x00000000        0x0 build/default/debug/_ext/1529399856/osal_freertos.o
 .data          0x00000000        0x0 build/default/debug/_ext/1529399856/osal_freertos.o
 .bss           0x00000000        0x0 build/default/debug/_ext/1529399856/osal_freertos.o
 .reginfo       0x00000000       0x18 build/default/debug/_ext/1529399856/osal_freertos.o
 .text.OSAL_CRIT_Enter
                0x00000000       0x70 build/default/debug/_ext/1529399856/osal_freertos.o
 .text.OSAL_CRIT_Leave
                0x00000000       0x70 build/default/debug/_ext/1529399856/osal_freertos.o
 .text.OSAL_SEM_Create
                0x00000000      0x170 build/default/debug/_ext/1529399856/osal_freertos.o
 .text.OSAL_SEM_Delete
                0x00000000       0x4c build/default/debug/_ext/1529399856/osal_freertos.o
 .text.OSAL_SEM_Pend
                0x00000000       0x98 build/default/debug/_ext/1529399856/osal_freertos.o
 .text.OSAL_SEM_Post
                0x00000000       0x6c build/default/debug/_ext/1529399856/osal_freertos.o
 .text.OSAL_SEM_PostISR
                0x00000000       0x90 build/default/debug/_ext/1529399856/osal_freertos.o
 .text.OSAL_SEM_GetCount
                0x00000000       0x64 build/default/debug/_ext/1529399856/osal_freertos.o
 .text.OSAL_MUTEX_Create
                0x00000000       0x64 build/default/debug/_ext/1529399856/osal_freertos.o
 .text.OSAL_MUTEX_Delete
                0x00000000       0x68 build/default/debug/_ext/1529399856/osal_freertos.o
 .text.OSAL_MUTEX_Lock
                0x00000000       0x98 build/default/debug/_ext/1529399856/osal_freertos.o
 .text.OSAL_MUTEX_Unlock
                0x00000000       0x6c build/default/debug/_ext/1529399856/osal_freertos.o
 .text.OSAL_Initialize
                0x00000000       0x24 build/default/debug/_ext/1529399856/osal_freertos.o
 .text          0x00000000        0x0 build/default/debug/_ext/1360937237/hd44780.o
 .data          0x00000000        0x0 build/default/debug/_ext/1360937237/hd44780.o
 .reginfo       0x00000000       0x18 build/default/debug/_ext/1360937237/hd44780.o
 .text.isLCDInitialized
                0x00000000       0x2c build/default/debug/_ext/1360937237/hd44780.o
 .text.getIsLCDIntialiazed
                0x00000000       0x2c build/default/debug/_ext/1360937237/hd44780.o
 .text.vLCD_HOME
                0x00000000       0x40 build/default/debug/_ext/1360937237/hd44780.o
 .text.vLCDClearLine
                0x00000000       0x70 build/default/debug/_ext/1360937237/hd44780.o
 .text.vLCD_Shift
                0x00000000       0x90 build/default/debug/_ext/1360937237/hd44780.o
 .text.getLCDInitialized
                0x00000000       0x2c build/default/debug/_ext/1360937237/hd44780.o
 .text          0x00000000        0x0 build/default/debug/_ext/1360937237/delay_us.o
 .data          0x00000000        0x0 build/default/debug/_ext/1360937237/delay_us.o
 .bss           0x00000000        0x0 build/default/debug/_ext/1360937237/delay_us.o
 .reginfo       0x00000000       0x18 build/default/debug/_ext/1360937237/delay_us.o
 .text          0x00000000        0x0 build/default/debug/_ext/1360937237/leds.o
 .data          0x00000000        0x0 build/default/debug/_ext/1360937237/leds.o
 .bss           0x00000000        0x0 build/default/debug/_ext/1360937237/leds.o
 .reginfo       0x00000000       0x18 build/default/debug/_ext/1360937237/leds.o
 .text          0x00000000        0x0 build/default/debug/_ext/1360937237/DS18B20.o
 .data          0x00000000        0x0 build/default/debug/_ext/1360937237/DS18B20.o
 .bss           0x00000000        0x0 build/default/debug/_ext/1360937237/DS18B20.o
 .reginfo       0x00000000       0x18 build/default/debug/_ext/1360937237/DS18B20.o
 .text.ReadROM  0x00000000       0xc8 build/default/debug/_ext/1360937237/DS18B20.o
 .text          0x00000000        0x0 build/default/debug/_ext/1360937237/contacts.o
 .data          0x00000000        0x0 build/default/debug/_ext/1360937237/contacts.o
 .bss           0x00000000        0x0 build/default/debug/_ext/1360937237/contacts.o
 .reginfo       0x00000000       0x18 build/default/debug/_ext/1360937237/contacts.o
 .text          0x00000000        0x0 build/default/debug/_ext/1360937237/moteurs.o
 .data          0x00000000        0x0 build/default/debug/_ext/1360937237/moteurs.o
 .bss           0x00000000        0x0 build/default/debug/_ext/1360937237/moteurs.o
 .reginfo       0x00000000       0x18 build/default/debug/_ext/1360937237/moteurs.o
 .text.setLastDir
                0x00000000       0x54 build/default/debug/_ext/1360937237/moteurs.o
 .text.getMotorState
                0x00000000       0x48 build/default/debug/_ext/1360937237/moteurs.o
 .text          0x00000000        0x0 build/default/debug/_ext/1360937237/trap_security.o
 .data          0x00000000        0x0 build/default/debug/_ext/1360937237/trap_security.o
 .bss           0x00000000        0x0 build/default/debug/_ext/1360937237/trap_security.o
 .reginfo       0x00000000       0x18 build/default/debug/_ext/1360937237/trap_security.o
 .text.vCheckSecurity
                0x00000000       0xa8 build/default/debug/_ext/1360937237/trap_security.o
 .text          0x00000000        0x0 build/default/debug/_ext/1360937237/main.o
 .data          0x00000000        0x0 build/default/debug/_ext/1360937237/main.o
 .bss           0x00000000        0x0 build/default/debug/_ext/1360937237/main.o
 .reginfo       0x00000000       0x18 build/default/debug/_ext/1360937237/main.o
 .text          0x00000000        0x0 build/default/debug/_ext/1360937237/mainboard2.o
 .data          0x00000000        0x0 build/default/debug/_ext/1360937237/mainboard2.o
 .reginfo       0x00000000       0x18 build/default/debug/_ext/1360937237/mainboard2.o
 .text.getMainBoardTaskState
                0x00000000       0x28 build/default/debug/_ext/1360937237/mainboard2.o
 .text.getAmountRequested
                0x00000000       0x2c build/default/debug/_ext/1360937237/mainboard2.o
 .text          0x00000000        0x0 C:\Users\ADMINI~1\AppData\Local\Temp\cc3xLHuC.o
 .data          0x00000000        0x0 C:\Users\ADMINI~1\AppData\Local\Temp\cc3xLHuC.o
 .bss           0x00000000        0x0 C:\Users\ADMINI~1\AppData\Local\Temp\cc3xLHuC.o
 .reginfo       0x00000000       0x18 C:\Users\ADMINI~1\AppData\Local\Temp\cc3xLHuC.o
 .text          0x00000000        0x0 C:\Users\ADMINI~1\AppData\Local\Temp\ccE5XcAE.o
 .data          0x00000000        0x0 C:\Users\ADMINI~1\AppData\Local\Temp\ccE5XcAE.o
 .bss           0x00000000        0x0 C:\Users\ADMINI~1\AppData\Local\Temp\ccE5XcAE.o
 .reginfo       0x00000000       0x18 C:\Users\ADMINI~1\AppData\Local\Temp\ccE5XcAE.o
 .text          0x00000000        0x0 C:\Users\ADMINI~1\AppData\Local\Temp\cc0AzwVc.o
 .data          0x00000000        0x0 C:\Users\ADMINI~1\AppData\Local\Temp\cc0AzwVc.o
 .bss           0x00000000        0x0 C:\Users\ADMINI~1\AppData\Local\Temp\cc0AzwVc.o
 .reginfo       0x00000000       0x18 C:\Users\ADMINI~1\AppData\Local\Temp\cc0AzwVc.o
 .discard       0x00000000       0xb8 C:\Users\ADMINI~1\AppData\Local\Temp\cc0AzwVc.o
 .data          0x00000000        0x0 d:/program files (x86)/microchip/xc32/v2.30/bin/bin/../../lib/gcc/pic32mx/4.8.3/../../../../pic32mx/lib\pic32_software_reset.o
 .bss           0x00000000        0x0 d:/program files (x86)/microchip/xc32/v2.30/bin/bin/../../lib/gcc/pic32mx/4.8.3/../../../../pic32mx/lib\pic32_software_reset.o
 .reginfo       0x00000000       0x18 d:/program files (x86)/microchip/xc32/v2.30/bin/bin/../../lib/gcc/pic32mx/4.8.3/../../../../pic32mx/lib\pic32_software_reset.o
 .text          0x00000000        0x0 d:/program files (x86)/microchip/xc32/v2.30/bin/bin/../../lib/gcc/pic32mx/4.8.3/../../../../pic32mx/lib/./proc/32MX470F512L\processor.o
 .data          0x00000000        0x0 d:/program files (x86)/microchip/xc32/v2.30/bin/bin/../../lib/gcc/pic32mx/4.8.3/../../../../pic32mx/lib/./proc/32MX470F512L\processor.o
 .bss           0x00000000        0x0 d:/program files (x86)/microchip/xc32/v2.30/bin/bin/../../lib/gcc/pic32mx/4.8.3/../../../../pic32mx/lib/./proc/32MX470F512L\processor.o
 .reginfo       0x00000000       0x18 d:/program files (x86)/microchip/xc32/v2.30/bin/bin/../../lib/gcc/pic32mx/4.8.3/../../../../pic32mx/lib/./proc/32MX470F512L\processor.o
 .data          0x00000000        0x0 d:/program files (x86)/microchip/xc32/v2.30/bin/bin/../../lib/gcc/pic32mx/4.8.3\libgcc.a(floatunsisf.o)
 .bss           0x00000000        0x0 d:/program files (x86)/microchip/xc32/v2.30/bin/bin/../../lib/gcc/pic32mx/4.8.3\libgcc.a(floatunsisf.o)
 .reginfo       0x00000000       0x18 d:/program files (x86)/microchip/xc32/v2.30/bin/bin/../../lib/gcc/pic32mx/4.8.3\libgcc.a(floatunsisf.o)
 .data          0x00000000        0x0 d:/program files (x86)/microchip/xc32/v2.30/bin/bin/../../lib/gcc/pic32mx/4.8.3/../../../../pic32mx/lib\libpic32.a(memcpy.o)
 .bss           0x00000000        0x0 d:/program files (x86)/microchip/xc32/v2.30/bin/bin/../../lib/gcc/pic32mx/4.8.3/../../../../pic32mx/lib\libpic32.a(memcpy.o)
 .reginfo       0x00000000       0x18 d:/program files (x86)/microchip/xc32/v2.30/bin/bin/../../lib/gcc/pic32mx/4.8.3/../../../../pic32mx/lib\libpic32.a(memcpy.o)
 .data          0x00000000        0x0 d:/program files (x86)/microchip/xc32/v2.30/bin/bin/../../lib/gcc/pic32mx/4.8.3/../../../../pic32mx/lib\libpic32.a(memset.o)
 .bss           0x00000000        0x0 d:/program files (x86)/microchip/xc32/v2.30/bin/bin/../../lib/gcc/pic32mx/4.8.3/../../../../pic32mx/lib\libpic32.a(memset.o)
 .reginfo       0x00000000       0x18 d:/program files (x86)/microchip/xc32/v2.30/bin/bin/../../lib/gcc/pic32mx/4.8.3/../../../../pic32mx/lib\libpic32.a(memset.o)
 .text          0x00000000        0x0 d:/program files (x86)/microchip/xc32/v2.30/bin/bin/../../lib/gcc/pic32mx/4.8.3/../../../../pic32mx/lib\libpic32.a(default-bootstrap-exception-handler.o)
 .data          0x00000000        0x0 d:/program files (x86)/microchip/xc32/v2.30/bin/bin/../../lib/gcc/pic32mx/4.8.3/../../../../pic32mx/lib\libpic32.a(default-bootstrap-exception-handler.o)
 .bss           0x00000000        0x0 d:/program files (x86)/microchip/xc32/v2.30/bin/bin/../../lib/gcc/pic32mx/4.8.3/../../../../pic32mx/lib\libpic32.a(default-bootstrap-exception-handler.o)
 .reginfo       0x00000000       0x18 d:/program files (x86)/microchip/xc32/v2.30/bin/bin/../../lib/gcc/pic32mx/4.8.3/../../../../pic32mx/lib\libpic32.a(default-bootstrap-exception-handler.o)
 .text          0x00000000        0x0 d:/program files (x86)/microchip/xc32/v2.30/bin/bin/../../lib/gcc/pic32mx/4.8.3/../../../../pic32mx/lib\libpic32.a(default-on-reset.o)
 .data          0x00000000        0x0 d:/program files (x86)/microchip/xc32/v2.30/bin/bin/../../lib/gcc/pic32mx/4.8.3/../../../../pic32mx/lib\libpic32.a(default-on-reset.o)
 .bss           0x00000000        0x0 d:/program files (x86)/microchip/xc32/v2.30/bin/bin/../../lib/gcc/pic32mx/4.8.3/../../../../pic32mx/lib\libpic32.a(default-on-reset.o)
 .reginfo       0x00000000       0x18 d:/program files (x86)/microchip/xc32/v2.30/bin/bin/../../lib/gcc/pic32mx/4.8.3/../../../../pic32mx/lib\libpic32.a(default-on-reset.o)
 .text          0x00000000        0x0 d:/program files (x86)/microchip/xc32/v2.30/bin/bin/../../lib/gcc/pic32mx/4.8.3/../../../../pic32mx/lib\libpic32.a(default-on-bootstrap.o)
 .data          0x00000000        0x0 d:/program files (x86)/microchip/xc32/v2.30/bin/bin/../../lib/gcc/pic32mx/4.8.3/../../../../pic32mx/lib\libpic32.a(default-on-bootstrap.o)
 .bss           0x00000000        0x0 d:/program files (x86)/microchip/xc32/v2.30/bin/bin/../../lib/gcc/pic32mx/4.8.3/../../../../pic32mx/lib\libpic32.a(default-on-bootstrap.o)
 .reginfo       0x00000000       0x18 d:/program files (x86)/microchip/xc32/v2.30/bin/bin/../../lib/gcc/pic32mx/4.8.3/../../../../pic32mx/lib\libpic32.a(default-on-bootstrap.o)
 .data          0x00000000        0x0 d:/program files (x86)/microchip/xc32/v2.30/bin/bin/../../lib/gcc/pic32mx/4.8.3/../../../../pic32mx/lib\libpic32.a(default-nmi-handler.o)
 .bss           0x00000000        0x0 d:/program files (x86)/microchip/xc32/v2.30/bin/bin/../../lib/gcc/pic32mx/4.8.3/../../../../pic32mx/lib\libpic32.a(default-nmi-handler.o)
 .reginfo       0x00000000       0x18 d:/program files (x86)/microchip/xc32/v2.30/bin/bin/../../lib/gcc/pic32mx/4.8.3/../../../../pic32mx/lib\libpic32.a(default-nmi-handler.o)
 .data          0x00000000        0x0 d:/program files (x86)/microchip/xc32/v2.30/bin/bin/../../lib/gcc/pic32mx/4.8.3/../../../../pic32mx/lib\libpic32.a(pic32_data_init.o)
 .bss           0x00000000        0x0 d:/program files (x86)/microchip/xc32/v2.30/bin/bin/../../lib/gcc/pic32mx/4.8.3/../../../../pic32mx/lib\libpic32.a(pic32_data_init.o)
 .reginfo       0x00000000       0x18 d:/program files (x86)/microchip/xc32/v2.30/bin/bin/../../lib/gcc/pic32mx/4.8.3/../../../../pic32mx/lib\libpic32.a(pic32_data_init.o)
 .text          0x00000000        0x0 d:/program files (x86)/microchip/xc32/v2.30/bin/bin/../../lib/gcc/pic32mx/4.8.3/../../../../pic32mx/lib\libpic32.a(general-exception.o)
 .data          0x00000000        0x0 d:/program files (x86)/microchip/xc32/v2.30/bin/bin/../../lib/gcc/pic32mx/4.8.3/../../../../pic32mx/lib\libpic32.a(general-exception.o)
 .bss           0x00000000        0x0 d:/program files (x86)/microchip/xc32/v2.30/bin/bin/../../lib/gcc/pic32mx/4.8.3/../../../../pic32mx/lib\libpic32.a(general-exception.o)
 .reginfo       0x00000000       0x18 d:/program files (x86)/microchip/xc32/v2.30/bin/bin/../../lib/gcc/pic32mx/4.8.3/../../../../pic32mx/lib\libpic32.a(general-exception.o)
 .text          0x00000000        0x0 d:/program files (x86)/microchip/xc32/v2.30/bin/bin/../../lib/gcc/pic32mx/4.8.3/../../../../pic32mx/lib\libpic32.a(vector0.o)
 .data          0x00000000        0x0 d:/program files (x86)/microchip/xc32/v2.30/bin/bin/../../lib/gcc/pic32mx/4.8.3/../../../../pic32mx/lib\libpic32.a(vector0.o)
 .bss           0x00000000        0x0 d:/program files (x86)/microchip/xc32/v2.30/bin/bin/../../lib/gcc/pic32mx/4.8.3/../../../../pic32mx/lib\libpic32.a(vector0.o)
 .reginfo       0x00000000       0x18 d:/program files (x86)/microchip/xc32/v2.30/bin/bin/../../lib/gcc/pic32mx/4.8.3/../../../../pic32mx/lib\libpic32.a(vector0.o)
 .text          0x00000000        0x0 d:/program files (x86)/microchip/xc32/v2.30/bin/bin/../../lib/gcc/pic32mx/4.8.3/../../../../pic32mx/lib\libpic32.a(vector2.o)
 .data          0x00000000        0x0 d:/program files (x86)/microchip/xc32/v2.30/bin/bin/../../lib/gcc/pic32mx/4.8.3/../../../../pic32mx/lib\libpic32.a(vector2.o)
 .bss           0x00000000        0x0 d:/program files (x86)/microchip/xc32/v2.30/bin/bin/../../lib/gcc/pic32mx/4.8.3/../../../../pic32mx/lib\libpic32.a(vector2.o)
 .reginfo       0x00000000       0x18 d:/program files (x86)/microchip/xc32/v2.30/bin/bin/../../lib/gcc/pic32mx/4.8.3/../../../../pic32mx/lib\libpic32.a(vector2.o)
 .text          0x00000000        0x0 d:/program files (x86)/microchip/xc32/v2.30/bin/bin/../../lib/gcc/pic32mx/4.8.3/../../../../pic32mx/lib\libpic32.a(vector3.o)
 .data          0x00000000        0x0 d:/program files (x86)/microchip/xc32/v2.30/bin/bin/../../lib/gcc/pic32mx/4.8.3/../../../../pic32mx/lib\libpic32.a(vector3.o)
 .bss           0x00000000        0x0 d:/program files (x86)/microchip/xc32/v2.30/bin/bin/../../lib/gcc/pic32mx/4.8.3/../../../../pic32mx/lib\libpic32.a(vector3.o)
 .reginfo       0x00000000       0x18 d:/program files (x86)/microchip/xc32/v2.30/bin/bin/../../lib/gcc/pic32mx/4.8.3/../../../../pic32mx/lib\libpic32.a(vector3.o)
 .text          0x00000000        0x0 d:/program files (x86)/microchip/xc32/v2.30/bin/bin/../../lib/gcc/pic32mx/4.8.3/../../../../pic32mx/lib\libpic32.a(vector5.o)
 .data          0x00000000        0x0 d:/program files (x86)/microchip/xc32/v2.30/bin/bin/../../lib/gcc/pic32mx/4.8.3/../../../../pic32mx/lib\libpic32.a(vector5.o)
 .bss           0x00000000        0x0 d:/program files (x86)/microchip/xc32/v2.30/bin/bin/../../lib/gcc/pic32mx/4.8.3/../../../../pic32mx/lib\libpic32.a(vector5.o)
 .reginfo       0x00000000       0x18 d:/program files (x86)/microchip/xc32/v2.30/bin/bin/../../lib/gcc/pic32mx/4.8.3/../../../../pic32mx/lib\libpic32.a(vector5.o)
 .text          0x00000000        0x0 d:/program files (x86)/microchip/xc32/v2.30/bin/bin/../../lib/gcc/pic32mx/4.8.3/../../../../pic32mx/lib\libpic32.a(vector6.o)
 .data          0x00000000        0x0 d:/program files (x86)/microchip/xc32/v2.30/bin/bin/../../lib/gcc/pic32mx/4.8.3/../../../../pic32mx/lib\libpic32.a(vector6.o)
 .bss           0x00000000        0x0 d:/program files (x86)/microchip/xc32/v2.30/bin/bin/../../lib/gcc/pic32mx/4.8.3/../../../../pic32mx/lib\libpic32.a(vector6.o)
 .reginfo       0x00000000       0x18 d:/program files (x86)/microchip/xc32/v2.30/bin/bin/../../lib/gcc/pic32mx/4.8.3/../../../../pic32mx/lib\libpic32.a(vector6.o)
 .text          0x00000000        0x0 d:/program files (x86)/microchip/xc32/v2.30/bin/bin/../../lib/gcc/pic32mx/4.8.3/../../../../pic32mx/lib\libpic32.a(vector7.o)
 .data          0x00000000        0x0 d:/program files (x86)/microchip/xc32/v2.30/bin/bin/../../lib/gcc/pic32mx/4.8.3/../../../../pic32mx/lib\libpic32.a(vector7.o)
 .bss           0x00000000        0x0 d:/program files (x86)/microchip/xc32/v2.30/bin/bin/../../lib/gcc/pic32mx/4.8.3/../../../../pic32mx/lib\libpic32.a(vector7.o)
 .reginfo       0x00000000       0x18 d:/program files (x86)/microchip/xc32/v2.30/bin/bin/../../lib/gcc/pic32mx/4.8.3/../../../../pic32mx/lib\libpic32.a(vector7.o)
 .text          0x00000000        0x0 d:/program files (x86)/microchip/xc32/v2.30/bin/bin/../../lib/gcc/pic32mx/4.8.3/../../../../pic32mx/lib\libpic32.a(vector8.o)
 .data          0x00000000        0x0 d:/program files (x86)/microchip/xc32/v2.30/bin/bin/../../lib/gcc/pic32mx/4.8.3/../../../../pic32mx/lib\libpic32.a(vector8.o)
 .bss           0x00000000        0x0 d:/program files (x86)/microchip/xc32/v2.30/bin/bin/../../lib/gcc/pic32mx/4.8.3/../../../../pic32mx/lib\libpic32.a(vector8.o)
 .reginfo       0x00000000       0x18 d:/program files (x86)/microchip/xc32/v2.30/bin/bin/../../lib/gcc/pic32mx/4.8.3/../../../../pic32mx/lib\libpic32.a(vector8.o)
 .text          0x00000000        0x0 d:/program files (x86)/microchip/xc32/v2.30/bin/bin/../../lib/gcc/pic32mx/4.8.3/../../../../pic32mx/lib\libpic32.a(vector9.o)
 .data          0x00000000        0x0 d:/program files (x86)/microchip/xc32/v2.30/bin/bin/../../lib/gcc/pic32mx/4.8.3/../../../../pic32mx/lib\libpic32.a(vector9.o)
 .bss           0x00000000        0x0 d:/program files (x86)/microchip/xc32/v2.30/bin/bin/../../lib/gcc/pic32mx/4.8.3/../../../../pic32mx/lib\libpic32.a(vector9.o)
 .reginfo       0x00000000       0x18 d:/program files (x86)/microchip/xc32/v2.30/bin/bin/../../lib/gcc/pic32mx/4.8.3/../../../../pic32mx/lib\libpic32.a(vector9.o)
 .text          0x00000000        0x0 d:/program files (x86)/microchip/xc32/v2.30/bin/bin/../../lib/gcc/pic32mx/4.8.3/../../../../pic32mx/lib\libpic32.a(vector10.o)
 .data          0x00000000        0x0 d:/program files (x86)/microchip/xc32/v2.30/bin/bin/../../lib/gcc/pic32mx/4.8.3/../../../../pic32mx/lib\libpic32.a(vector10.o)
 .bss           0x00000000        0x0 d:/program files (x86)/microchip/xc32/v2.30/bin/bin/../../lib/gcc/pic32mx/4.8.3/../../../../pic32mx/lib\libpic32.a(vector10.o)
 .reginfo       0x00000000       0x18 d:/program files (x86)/microchip/xc32/v2.30/bin/bin/../../lib/gcc/pic32mx/4.8.3/../../../../pic32mx/lib\libpic32.a(vector10.o)
 .text          0x00000000        0x0 d:/program files (x86)/microchip/xc32/v2.30/bin/bin/../../lib/gcc/pic32mx/4.8.3/../../../../pic32mx/lib\libpic32.a(vector11.o)
 .data          0x00000000        0x0 d:/program files (x86)/microchip/xc32/v2.30/bin/bin/../../lib/gcc/pic32mx/4.8.3/../../../../pic32mx/lib\libpic32.a(vector11.o)
 .bss           0x00000000        0x0 d:/program files (x86)/microchip/xc32/v2.30/bin/bin/../../lib/gcc/pic32mx/4.8.3/../../../../pic32mx/lib\libpic32.a(vector11.o)
 .reginfo       0x00000000       0x18 d:/program files (x86)/microchip/xc32/v2.30/bin/bin/../../lib/gcc/pic32mx/4.8.3/../../../../pic32mx/lib\libpic32.a(vector11.o)
 .text          0x00000000        0x0 d:/program files (x86)/microchip/xc32/v2.30/bin/bin/../../lib/gcc/pic32mx/4.8.3/../../../../pic32mx/lib\libpic32.a(vector12.o)
 .data          0x00000000        0x0 d:/program files (x86)/microchip/xc32/v2.30/bin/bin/../../lib/gcc/pic32mx/4.8.3/../../../../pic32mx/lib\libpic32.a(vector12.o)
 .bss           0x00000000        0x0 d:/program files (x86)/microchip/xc32/v2.30/bin/bin/../../lib/gcc/pic32mx/4.8.3/../../../../pic32mx/lib\libpic32.a(vector12.o)
 .reginfo       0x00000000       0x18 d:/program files (x86)/microchip/xc32/v2.30/bin/bin/../../lib/gcc/pic32mx/4.8.3/../../../../pic32mx/lib\libpic32.a(vector12.o)
 .text          0x00000000        0x0 d:/program files (x86)/microchip/xc32/v2.30/bin/bin/../../lib/gcc/pic32mx/4.8.3/../../../../pic32mx/lib\libpic32.a(vector13.o)
 .data          0x00000000        0x0 d:/program files (x86)/microchip/xc32/v2.30/bin/bin/../../lib/gcc/pic32mx/4.8.3/../../../../pic32mx/lib\libpic32.a(vector13.o)
 .bss           0x00000000        0x0 d:/program files (x86)/microchip/xc32/v2.30/bin/bin/../../lib/gcc/pic32mx/4.8.3/../../../../pic32mx/lib\libpic32.a(vector13.o)
 .reginfo       0x00000000       0x18 d:/program files (x86)/microchip/xc32/v2.30/bin/bin/../../lib/gcc/pic32mx/4.8.3/../../../../pic32mx/lib\libpic32.a(vector13.o)
 .text          0x00000000        0x0 d:/program files (x86)/microchip/xc32/v2.30/bin/bin/../../lib/gcc/pic32mx/4.8.3/../../../../pic32mx/lib\libpic32.a(vector14.o)
 .data          0x00000000        0x0 d:/program files (x86)/microchip/xc32/v2.30/bin/bin/../../lib/gcc/pic32mx/4.8.3/../../../../pic32mx/lib\libpic32.a(vector14.o)
 .bss           0x00000000        0x0 d:/program files (x86)/microchip/xc32/v2.30/bin/bin/../../lib/gcc/pic32mx/4.8.3/../../../../pic32mx/lib\libpic32.a(vector14.o)
 .reginfo       0x00000000       0x18 d:/program files (x86)/microchip/xc32/v2.30/bin/bin/../../lib/gcc/pic32mx/4.8.3/../../../../pic32mx/lib\libpic32.a(vector14.o)
 .text          0x00000000        0x0 d:/program files (x86)/microchip/xc32/v2.30/bin/bin/../../lib/gcc/pic32mx/4.8.3/../../../../pic32mx/lib\libpic32.a(vector15.o)
 .data          0x00000000        0x0 d:/program files (x86)/microchip/xc32/v2.30/bin/bin/../../lib/gcc/pic32mx/4.8.3/../../../../pic32mx/lib\libpic32.a(vector15.o)
 .bss           0x00000000        0x0 d:/program files (x86)/microchip/xc32/v2.30/bin/bin/../../lib/gcc/pic32mx/4.8.3/../../../../pic32mx/lib\libpic32.a(vector15.o)
 .reginfo       0x00000000       0x18 d:/program files (x86)/microchip/xc32/v2.30/bin/bin/../../lib/gcc/pic32mx/4.8.3/../../../../pic32mx/lib\libpic32.a(vector15.o)
 .text          0x00000000        0x0 d:/program files (x86)/microchip/xc32/v2.30/bin/bin/../../lib/gcc/pic32mx/4.8.3/../../../../pic32mx/lib\libpic32.a(vector16.o)
 .data          0x00000000        0x0 d:/program files (x86)/microchip/xc32/v2.30/bin/bin/../../lib/gcc/pic32mx/4.8.3/../../../../pic32mx/lib\libpic32.a(vector16.o)
 .bss           0x00000000        0x0 d:/program files (x86)/microchip/xc32/v2.30/bin/bin/../../lib/gcc/pic32mx/4.8.3/../../../../pic32mx/lib\libpic32.a(vector16.o)
 .reginfo       0x00000000       0x18 d:/program files (x86)/microchip/xc32/v2.30/bin/bin/../../lib/gcc/pic32mx/4.8.3/../../../../pic32mx/lib\libpic32.a(vector16.o)
 .text          0x00000000        0x0 d:/program files (x86)/microchip/xc32/v2.30/bin/bin/../../lib/gcc/pic32mx/4.8.3/../../../../pic32mx/lib\libpic32.a(vector17.o)
 .data          0x00000000        0x0 d:/program files (x86)/microchip/xc32/v2.30/bin/bin/../../lib/gcc/pic32mx/4.8.3/../../../../pic32mx/lib\libpic32.a(vector17.o)
 .bss           0x00000000        0x0 d:/program files (x86)/microchip/xc32/v2.30/bin/bin/../../lib/gcc/pic32mx/4.8.3/../../../../pic32mx/lib\libpic32.a(vector17.o)
 .reginfo       0x00000000       0x18 d:/program files (x86)/microchip/xc32/v2.30/bin/bin/../../lib/gcc/pic32mx/4.8.3/../../../../pic32mx/lib\libpic32.a(vector17.o)
 .text          0x00000000        0x0 d:/program files (x86)/microchip/xc32/v2.30/bin/bin/../../lib/gcc/pic32mx/4.8.3/../../../../pic32mx/lib\libpic32.a(vector18.o)
 .data          0x00000000        0x0 d:/program files (x86)/microchip/xc32/v2.30/bin/bin/../../lib/gcc/pic32mx/4.8.3/../../../../pic32mx/lib\libpic32.a(vector18.o)
 .bss           0x00000000        0x0 d:/program files (x86)/microchip/xc32/v2.30/bin/bin/../../lib/gcc/pic32mx/4.8.3/../../../../pic32mx/lib\libpic32.a(vector18.o)
 .reginfo       0x00000000       0x18 d:/program files (x86)/microchip/xc32/v2.30/bin/bin/../../lib/gcc/pic32mx/4.8.3/../../../../pic32mx/lib\libpic32.a(vector18.o)
 .text          0x00000000        0x0 d:/program files (x86)/microchip/xc32/v2.30/bin/bin/../../lib/gcc/pic32mx/4.8.3/../../../../pic32mx/lib\libpic32.a(vector19.o)
 .data          0x00000000        0x0 d:/program files (x86)/microchip/xc32/v2.30/bin/bin/../../lib/gcc/pic32mx/4.8.3/../../../../pic32mx/lib\libpic32.a(vector19.o)
 .bss           0x00000000        0x0 d:/program files (x86)/microchip/xc32/v2.30/bin/bin/../../lib/gcc/pic32mx/4.8.3/../../../../pic32mx/lib\libpic32.a(vector19.o)
 .reginfo       0x00000000       0x18 d:/program files (x86)/microchip/xc32/v2.30/bin/bin/../../lib/gcc/pic32mx/4.8.3/../../../../pic32mx/lib\libpic32.a(vector19.o)
 .text          0x00000000        0x0 d:/program files (x86)/microchip/xc32/v2.30/bin/bin/../../lib/gcc/pic32mx/4.8.3/../../../../pic32mx/lib\libpic32.a(vector20.o)
 .data          0x00000000        0x0 d:/program files (x86)/microchip/xc32/v2.30/bin/bin/../../lib/gcc/pic32mx/4.8.3/../../../../pic32mx/lib\libpic32.a(vector20.o)
 .bss           0x00000000        0x0 d:/program files (x86)/microchip/xc32/v2.30/bin/bin/../../lib/gcc/pic32mx/4.8.3/../../../../pic32mx/lib\libpic32.a(vector20.o)
 .reginfo       0x00000000       0x18 d:/program files (x86)/microchip/xc32/v2.30/bin/bin/../../lib/gcc/pic32mx/4.8.3/../../../../pic32mx/lib\libpic32.a(vector20.o)
 .text          0x00000000        0x0 d:/program files (x86)/microchip/xc32/v2.30/bin/bin/../../lib/gcc/pic32mx/4.8.3/../../../../pic32mx/lib\libpic32.a(vector21.o)
 .data          0x00000000        0x0 d:/program files (x86)/microchip/xc32/v2.30/bin/bin/../../lib/gcc/pic32mx/4.8.3/../../../../pic32mx/lib\libpic32.a(vector21.o)
 .bss           0x00000000        0x0 d:/program files (x86)/microchip/xc32/v2.30/bin/bin/../../lib/gcc/pic32mx/4.8.3/../../../../pic32mx/lib\libpic32.a(vector21.o)
 .reginfo       0x00000000       0x18 d:/program files (x86)/microchip/xc32/v2.30/bin/bin/../../lib/gcc/pic32mx/4.8.3/../../../../pic32mx/lib\libpic32.a(vector21.o)
 .text          0x00000000        0x0 d:/program files (x86)/microchip/xc32/v2.30/bin/bin/../../lib/gcc/pic32mx/4.8.3/../../../../pic32mx/lib\libpic32.a(vector22.o)
 .data          0x00000000        0x0 d:/program files (x86)/microchip/xc32/v2.30/bin/bin/../../lib/gcc/pic32mx/4.8.3/../../../../pic32mx/lib\libpic32.a(vector22.o)
 .bss           0x00000000        0x0 d:/program files (x86)/microchip/xc32/v2.30/bin/bin/../../lib/gcc/pic32mx/4.8.3/../../../../pic32mx/lib\libpic32.a(vector22.o)
 .reginfo       0x00000000       0x18 d:/program files (x86)/microchip/xc32/v2.30/bin/bin/../../lib/gcc/pic32mx/4.8.3/../../../../pic32mx/lib\libpic32.a(vector22.o)
 .text          0x00000000        0x0 d:/program files (x86)/microchip/xc32/v2.30/bin/bin/../../lib/gcc/pic32mx/4.8.3/../../../../pic32mx/lib\libpic32.a(vector24.o)
 .data          0x00000000        0x0 d:/program files (x86)/microchip/xc32/v2.30/bin/bin/../../lib/gcc/pic32mx/4.8.3/../../../../pic32mx/lib\libpic32.a(vector24.o)
 .bss           0x00000000        0x0 d:/program files (x86)/microchip/xc32/v2.30/bin/bin/../../lib/gcc/pic32mx/4.8.3/../../../../pic32mx/lib\libpic32.a(vector24.o)
 .reginfo       0x00000000       0x18 d:/program files (x86)/microchip/xc32/v2.30/bin/bin/../../lib/gcc/pic32mx/4.8.3/../../../../pic32mx/lib\libpic32.a(vector24.o)
 .text          0x00000000        0x0 d:/program files (x86)/microchip/xc32/v2.30/bin/bin/../../lib/gcc/pic32mx/4.8.3/../../../../pic32mx/lib\libpic32.a(vector25.o)
 .data          0x00000000        0x0 d:/program files (x86)/microchip/xc32/v2.30/bin/bin/../../lib/gcc/pic32mx/4.8.3/../../../../pic32mx/lib\libpic32.a(vector25.o)
 .bss           0x00000000        0x0 d:/program files (x86)/microchip/xc32/v2.30/bin/bin/../../lib/gcc/pic32mx/4.8.3/../../../../pic32mx/lib\libpic32.a(vector25.o)
 .reginfo       0x00000000       0x18 d:/program files (x86)/microchip/xc32/v2.30/bin/bin/../../lib/gcc/pic32mx/4.8.3/../../../../pic32mx/lib\libpic32.a(vector25.o)
 .text          0x00000000        0x0 d:/program files (x86)/microchip/xc32/v2.30/bin/bin/../../lib/gcc/pic32mx/4.8.3/../../../../pic32mx/lib\libpic32.a(vector26.o)
 .data          0x00000000        0x0 d:/program files (x86)/microchip/xc32/v2.30/bin/bin/../../lib/gcc/pic32mx/4.8.3/../../../../pic32mx/lib\libpic32.a(vector26.o)
 .bss           0x00000000        0x0 d:/program files (x86)/microchip/xc32/v2.30/bin/bin/../../lib/gcc/pic32mx/4.8.3/../../../../pic32mx/lib\libpic32.a(vector26.o)
 .reginfo       0x00000000       0x18 d:/program files (x86)/microchip/xc32/v2.30/bin/bin/../../lib/gcc/pic32mx/4.8.3/../../../../pic32mx/lib\libpic32.a(vector26.o)
 .text          0x00000000        0x0 d:/program files (x86)/microchip/xc32/v2.30/bin/bin/../../lib/gcc/pic32mx/4.8.3/../../../../pic32mx/lib\libpic32.a(vector27.o)
 .data          0x00000000        0x0 d:/program files (x86)/microchip/xc32/v2.30/bin/bin/../../lib/gcc/pic32mx/4.8.3/../../../../pic32mx/lib\libpic32.a(vector27.o)
 .bss           0x00000000        0x0 d:/program files (x86)/microchip/xc32/v2.30/bin/bin/../../lib/gcc/pic32mx/4.8.3/../../../../pic32mx/lib\libpic32.a(vector27.o)
 .reginfo       0x00000000       0x18 d:/program files (x86)/microchip/xc32/v2.30/bin/bin/../../lib/gcc/pic32mx/4.8.3/../../../../pic32mx/lib\libpic32.a(vector27.o)
 .text          0x00000000        0x0 d:/program files (x86)/microchip/xc32/v2.30/bin/bin/../../lib/gcc/pic32mx/4.8.3/../../../../pic32mx/lib\libpic32.a(vector28.o)
 .data          0x00000000        0x0 d:/program files (x86)/microchip/xc32/v2.30/bin/bin/../../lib/gcc/pic32mx/4.8.3/../../../../pic32mx/lib\libpic32.a(vector28.o)
 .bss           0x00000000        0x0 d:/program files (x86)/microchip/xc32/v2.30/bin/bin/../../lib/gcc/pic32mx/4.8.3/../../../../pic32mx/lib\libpic32.a(vector28.o)
 .reginfo       0x00000000       0x18 d:/program files (x86)/microchip/xc32/v2.30/bin/bin/../../lib/gcc/pic32mx/4.8.3/../../../../pic32mx/lib\libpic32.a(vector28.o)
 .text          0x00000000        0x0 d:/program files (x86)/microchip/xc32/v2.30/bin/bin/../../lib/gcc/pic32mx/4.8.3/../../../../pic32mx/lib\libpic32.a(vector29.o)
 .data          0x00000000        0x0 d:/program files (x86)/microchip/xc32/v2.30/bin/bin/../../lib/gcc/pic32mx/4.8.3/../../../../pic32mx/lib\libpic32.a(vector29.o)
 .bss           0x00000000        0x0 d:/program files (x86)/microchip/xc32/v2.30/bin/bin/../../lib/gcc/pic32mx/4.8.3/../../../../pic32mx/lib\libpic32.a(vector29.o)
 .reginfo       0x00000000       0x18 d:/program files (x86)/microchip/xc32/v2.30/bin/bin/../../lib/gcc/pic32mx/4.8.3/../../../../pic32mx/lib\libpic32.a(vector29.o)
 .text          0x00000000        0x0 d:/program files (x86)/microchip/xc32/v2.30/bin/bin/../../lib/gcc/pic32mx/4.8.3/../../../../pic32mx/lib\libpic32.a(vector30.o)
 .data          0x00000000        0x0 d:/program files (x86)/microchip/xc32/v2.30/bin/bin/../../lib/gcc/pic32mx/4.8.3/../../../../pic32mx/lib\libpic32.a(vector30.o)
 .bss           0x00000000        0x0 d:/program files (x86)/microchip/xc32/v2.30/bin/bin/../../lib/gcc/pic32mx/4.8.3/../../../../pic32mx/lib\libpic32.a(vector30.o)
 .reginfo       0x00000000       0x18 d:/program files (x86)/microchip/xc32/v2.30/bin/bin/../../lib/gcc/pic32mx/4.8.3/../../../../pic32mx/lib\libpic32.a(vector30.o)
 .text          0x00000000        0x0 d:/program files (x86)/microchip/xc32/v2.30/bin/bin/../../lib/gcc/pic32mx/4.8.3/../../../../pic32mx/lib\libpic32.a(vector31.o)
 .data          0x00000000        0x0 d:/program files (x86)/microchip/xc32/v2.30/bin/bin/../../lib/gcc/pic32mx/4.8.3/../../../../pic32mx/lib\libpic32.a(vector31.o)
 .bss           0x00000000        0x0 d:/program files (x86)/microchip/xc32/v2.30/bin/bin/../../lib/gcc/pic32mx/4.8.3/../../../../pic32mx/lib\libpic32.a(vector31.o)
 .reginfo       0x00000000       0x18 d:/program files (x86)/microchip/xc32/v2.30/bin/bin/../../lib/gcc/pic32mx/4.8.3/../../../../pic32mx/lib\libpic32.a(vector31.o)
 .text          0x00000000        0x0 d:/program files (x86)/microchip/xc32/v2.30/bin/bin/../../lib/gcc/pic32mx/4.8.3/../../../../pic32mx/lib\libpic32.a(vector33.o)
 .data          0x00000000        0x0 d:/program files (x86)/microchip/xc32/v2.30/bin/bin/../../lib/gcc/pic32mx/4.8.3/../../../../pic32mx/lib\libpic32.a(vector33.o)
 .bss           0x00000000        0x0 d:/program files (x86)/microchip/xc32/v2.30/bin/bin/../../lib/gcc/pic32mx/4.8.3/../../../../pic32mx/lib\libpic32.a(vector33.o)
 .reginfo       0x00000000       0x18 d:/program files (x86)/microchip/xc32/v2.30/bin/bin/../../lib/gcc/pic32mx/4.8.3/../../../../pic32mx/lib\libpic32.a(vector33.o)
 .text          0x00000000        0x0 d:/program files (x86)/microchip/xc32/v2.30/bin/bin/../../lib/gcc/pic32mx/4.8.3/../../../../pic32mx/lib\libpic32.a(vector34.o)
 .data          0x00000000        0x0 d:/program files (x86)/microchip/xc32/v2.30/bin/bin/../../lib/gcc/pic32mx/4.8.3/../../../../pic32mx/lib\libpic32.a(vector34.o)
 .bss           0x00000000        0x0 d:/program files (x86)/microchip/xc32/v2.30/bin/bin/../../lib/gcc/pic32mx/4.8.3/../../../../pic32mx/lib\libpic32.a(vector34.o)
 .reginfo       0x00000000       0x18 d:/program files (x86)/microchip/xc32/v2.30/bin/bin/../../lib/gcc/pic32mx/4.8.3/../../../../pic32mx/lib\libpic32.a(vector34.o)
 .text          0x00000000        0x0 d:/program files (x86)/microchip/xc32/v2.30/bin/bin/../../lib/gcc/pic32mx/4.8.3/../../../../pic32mx/lib\libpic32.a(vector35.o)
 .data          0x00000000        0x0 d:/program files (x86)/microchip/xc32/v2.30/bin/bin/../../lib/gcc/pic32mx/4.8.3/../../../../pic32mx/lib\libpic32.a(vector35.o)
 .bss           0x00000000        0x0 d:/program files (x86)/microchip/xc32/v2.30/bin/bin/../../lib/gcc/pic32mx/4.8.3/../../../../pic32mx/lib\libpic32.a(vector35.o)
 .reginfo       0x00000000       0x18 d:/program files (x86)/microchip/xc32/v2.30/bin/bin/../../lib/gcc/pic32mx/4.8.3/../../../../pic32mx/lib\libpic32.a(vector35.o)
 .text          0x00000000        0x0 d:/program files (x86)/microchip/xc32/v2.30/bin/bin/../../lib/gcc/pic32mx/4.8.3/../../../../pic32mx/lib\libpic32.a(vector36.o)
 .data          0x00000000        0x0 d:/program files (x86)/microchip/xc32/v2.30/bin/bin/../../lib/gcc/pic32mx/4.8.3/../../../../pic32mx/lib\libpic32.a(vector36.o)
 .bss           0x00000000        0x0 d:/program files (x86)/microchip/xc32/v2.30/bin/bin/../../lib/gcc/pic32mx/4.8.3/../../../../pic32mx/lib\libpic32.a(vector36.o)
 .reginfo       0x00000000       0x18 d:/program files (x86)/microchip/xc32/v2.30/bin/bin/../../lib/gcc/pic32mx/4.8.3/../../../../pic32mx/lib\libpic32.a(vector36.o)
 .text          0x00000000        0x0 d:/program files (x86)/microchip/xc32/v2.30/bin/bin/../../lib/gcc/pic32mx/4.8.3/../../../../pic32mx/lib\libpic32.a(vector37.o)
 .data          0x00000000        0x0 d:/program files (x86)/microchip/xc32/v2.30/bin/bin/../../lib/gcc/pic32mx/4.8.3/../../../../pic32mx/lib\libpic32.a(vector37.o)
 .bss           0x00000000        0x0 d:/program files (x86)/microchip/xc32/v2.30/bin/bin/../../lib/gcc/pic32mx/4.8.3/../../../../pic32mx/lib\libpic32.a(vector37.o)
 .reginfo       0x00000000       0x18 d:/program files (x86)/microchip/xc32/v2.30/bin/bin/../../lib/gcc/pic32mx/4.8.3/../../../../pic32mx/lib\libpic32.a(vector37.o)
 .text          0x00000000        0x0 d:/program files (x86)/microchip/xc32/v2.30/bin/bin/../../lib/gcc/pic32mx/4.8.3/../../../../pic32mx/lib\libpic32.a(vector38.o)
 .data          0x00000000        0x0 d:/program files (x86)/microchip/xc32/v2.30/bin/bin/../../lib/gcc/pic32mx/4.8.3/../../../../pic32mx/lib\libpic32.a(vector38.o)
 .bss           0x00000000        0x0 d:/program files (x86)/microchip/xc32/v2.30/bin/bin/../../lib/gcc/pic32mx/4.8.3/../../../../pic32mx/lib\libpic32.a(vector38.o)
 .reginfo       0x00000000       0x18 d:/program files (x86)/microchip/xc32/v2.30/bin/bin/../../lib/gcc/pic32mx/4.8.3/../../../../pic32mx/lib\libpic32.a(vector38.o)
 .text          0x00000000        0x0 d:/program files (x86)/microchip/xc32/v2.30/bin/bin/../../lib/gcc/pic32mx/4.8.3/../../../../pic32mx/lib\libpic32.a(vector39.o)
 .data          0x00000000        0x0 d:/program files (x86)/microchip/xc32/v2.30/bin/bin/../../lib/gcc/pic32mx/4.8.3/../../../../pic32mx/lib\libpic32.a(vector39.o)
 .bss           0x00000000        0x0 d:/program files (x86)/microchip/xc32/v2.30/bin/bin/../../lib/gcc/pic32mx/4.8.3/../../../../pic32mx/lib\libpic32.a(vector39.o)
 .reginfo       0x00000000       0x18 d:/program files (x86)/microchip/xc32/v2.30/bin/bin/../../lib/gcc/pic32mx/4.8.3/../../../../pic32mx/lib\libpic32.a(vector39.o)
 .text          0x00000000        0x0 d:/program files (x86)/microchip/xc32/v2.30/bin/bin/../../lib/gcc/pic32mx/4.8.3/../../../../pic32mx/lib\libpic32.a(vector40.o)
 .data          0x00000000        0x0 d:/program files (x86)/microchip/xc32/v2.30/bin/bin/../../lib/gcc/pic32mx/4.8.3/../../../../pic32mx/lib\libpic32.a(vector40.o)
 .bss           0x00000000        0x0 d:/program files (x86)/microchip/xc32/v2.30/bin/bin/../../lib/gcc/pic32mx/4.8.3/../../../../pic32mx/lib\libpic32.a(vector40.o)
 .reginfo       0x00000000       0x18 d:/program files (x86)/microchip/xc32/v2.30/bin/bin/../../lib/gcc/pic32mx/4.8.3/../../../../pic32mx/lib\libpic32.a(vector40.o)
 .text          0x00000000        0x0 d:/program files (x86)/microchip/xc32/v2.30/bin/bin/../../lib/gcc/pic32mx/4.8.3/../../../../pic32mx/lib\libpic32.a(vector41.o)
 .data          0x00000000        0x0 d:/program files (x86)/microchip/xc32/v2.30/bin/bin/../../lib/gcc/pic32mx/4.8.3/../../../../pic32mx/lib\libpic32.a(vector41.o)
 .bss           0x00000000        0x0 d:/program files (x86)/microchip/xc32/v2.30/bin/bin/../../lib/gcc/pic32mx/4.8.3/../../../../pic32mx/lib\libpic32.a(vector41.o)
 .reginfo       0x00000000       0x18 d:/program files (x86)/microchip/xc32/v2.30/bin/bin/../../lib/gcc/pic32mx/4.8.3/../../../../pic32mx/lib\libpic32.a(vector41.o)
 .text          0x00000000        0x0 d:/program files (x86)/microchip/xc32/v2.30/bin/bin/../../lib/gcc/pic32mx/4.8.3/../../../../pic32mx/lib\libpic32.a(vector42.o)
 .data          0x00000000        0x0 d:/program files (x86)/microchip/xc32/v2.30/bin/bin/../../lib/gcc/pic32mx/4.8.3/../../../../pic32mx/lib\libpic32.a(vector42.o)
 .bss           0x00000000        0x0 d:/program files (x86)/microchip/xc32/v2.30/bin/bin/../../lib/gcc/pic32mx/4.8.3/../../../../pic32mx/lib\libpic32.a(vector42.o)
 .reginfo       0x00000000       0x18 d:/program files (x86)/microchip/xc32/v2.30/bin/bin/../../lib/gcc/pic32mx/4.8.3/../../../../pic32mx/lib\libpic32.a(vector42.o)
 .text          0x00000000        0x0 d:/program files (x86)/microchip/xc32/v2.30/bin/bin/../../lib/gcc/pic32mx/4.8.3/../../../../pic32mx/lib\libpic32.a(vector43.o)
 .data          0x00000000        0x0 d:/program files (x86)/microchip/xc32/v2.30/bin/bin/../../lib/gcc/pic32mx/4.8.3/../../../../pic32mx/lib\libpic32.a(vector43.o)
 .bss           0x00000000        0x0 d:/program files (x86)/microchip/xc32/v2.30/bin/bin/../../lib/gcc/pic32mx/4.8.3/../../../../pic32mx/lib\libpic32.a(vector43.o)
 .reginfo       0x00000000       0x18 d:/program files (x86)/microchip/xc32/v2.30/bin/bin/../../lib/gcc/pic32mx/4.8.3/../../../../pic32mx/lib\libpic32.a(vector43.o)
 .text          0x00000000        0x0 d:/program files (x86)/microchip/xc32/v2.30/bin/bin/../../lib/gcc/pic32mx/4.8.3/../../../../pic32mx/lib\libpic32.a(vector44.o)
 .data          0x00000000        0x0 d:/program files (x86)/microchip/xc32/v2.30/bin/bin/../../lib/gcc/pic32mx/4.8.3/../../../../pic32mx/lib\libpic32.a(vector44.o)
 .bss           0x00000000        0x0 d:/program files (x86)/microchip/xc32/v2.30/bin/bin/../../lib/gcc/pic32mx/4.8.3/../../../../pic32mx/lib\libpic32.a(vector44.o)
 .reginfo       0x00000000       0x18 d:/program files (x86)/microchip/xc32/v2.30/bin/bin/../../lib/gcc/pic32mx/4.8.3/../../../../pic32mx/lib\libpic32.a(vector44.o)
 .text          0x00000000        0x0 d:/program files (x86)/microchip/xc32/v2.30/bin/bin/../../lib/gcc/pic32mx/4.8.3/../../../../pic32mx/lib\libpic32.a(vector45.o)
 .data          0x00000000        0x0 d:/program files (x86)/microchip/xc32/v2.30/bin/bin/../../lib/gcc/pic32mx/4.8.3/../../../../pic32mx/lib\libpic32.a(vector45.o)
 .bss           0x00000000        0x0 d:/program files (x86)/microchip/xc32/v2.30/bin/bin/../../lib/gcc/pic32mx/4.8.3/../../../../pic32mx/lib\libpic32.a(vector45.o)
 .reginfo       0x00000000       0x18 d:/program files (x86)/microchip/xc32/v2.30/bin/bin/../../lib/gcc/pic32mx/4.8.3/../../../../pic32mx/lib\libpic32.a(vector45.o)
 .text          0x00000000        0x0 d:/program files (x86)/microchip/xc32/v2.30/bin/bin/../../lib/gcc/pic32mx/4.8.3/../../../../pic32mx/lib\libpic32.a(defaultinterrupt.o)
 .data          0x00000000        0x0 d:/program files (x86)/microchip/xc32/v2.30/bin/bin/../../lib/gcc/pic32mx/4.8.3/../../../../pic32mx/lib\libpic32.a(defaultinterrupt.o)
 .bss           0x00000000        0x0 d:/program files (x86)/microchip/xc32/v2.30/bin/bin/../../lib/gcc/pic32mx/4.8.3/../../../../pic32mx/lib\libpic32.a(defaultinterrupt.o)
 .reginfo       0x00000000       0x18 d:/program files (x86)/microchip/xc32/v2.30/bin/bin/../../lib/gcc/pic32mx/4.8.3/../../../../pic32mx/lib\libpic32.a(defaultinterrupt.o)
 .text          0x00000000        0x0 d:/program files (x86)/microchip/xc32/v2.30/bin/bin/../../lib/gcc/pic32mx/4.8.3/../../../../pic32mx/lib\libc.a(memmove.o)
 .data          0x00000000        0x0 d:/program files (x86)/microchip/xc32/v2.30/bin/bin/../../lib/gcc/pic32mx/4.8.3/../../../../pic32mx/lib\libc.a(memmove.o)
 .bss           0x00000000        0x0 d:/program files (x86)/microchip/xc32/v2.30/bin/bin/../../lib/gcc/pic32mx/4.8.3/../../../../pic32mx/lib\libc.a(memmove.o)
 .reginfo       0x00000000       0x18 d:/program files (x86)/microchip/xc32/v2.30/bin/bin/../../lib/gcc/pic32mx/4.8.3/../../../../pic32mx/lib\libc.a(memmove.o)
 .text          0x00000000        0x0 d:/program files (x86)/microchip/xc32/v2.30/bin/bin/../../lib/gcc/pic32mx/4.8.3/../../../../pic32mx/lib\libc.a(vprintf.o)
 .data          0x00000000        0x0 d:/program files (x86)/microchip/xc32/v2.30/bin/bin/../../lib/gcc/pic32mx/4.8.3/../../../../pic32mx/lib\libc.a(vprintf.o)
 .bss           0x00000000        0x0 d:/program files (x86)/microchip/xc32/v2.30/bin/bin/../../lib/gcc/pic32mx/4.8.3/../../../../pic32mx/lib\libc.a(vprintf.o)
 .reginfo       0x00000000       0x18 d:/program files (x86)/microchip/xc32/v2.30/bin/bin/../../lib/gcc/pic32mx/4.8.3/../../../../pic32mx/lib\libc.a(vprintf.o)
 .text          0x00000000        0x0 d:/program files (x86)/microchip/xc32/v2.30/bin/bin/../../lib/gcc/pic32mx/4.8.3/../../../../pic32mx/lib\libc.a(_iob.o)
 .reginfo       0x00000000       0x18 d:/program files (x86)/microchip/xc32/v2.30/bin/bin/../../lib/gcc/pic32mx/4.8.3/../../../../pic32mx/lib\libc.a(_iob.o)
 .text          0x00000000        0x0 d:/program files (x86)/microchip/xc32/v2.30/bin/bin/../../lib/gcc/pic32mx/4.8.3/../../../../pic32mx/lib\libc.a(doprnt.o)
 .data          0x00000000        0x0 d:/program files (x86)/microchip/xc32/v2.30/bin/bin/../../lib/gcc/pic32mx/4.8.3/../../../../pic32mx/lib\libc.a(doprnt.o)
 .bss           0x00000000        0x0 d:/program files (x86)/microchip/xc32/v2.30/bin/bin/../../lib/gcc/pic32mx/4.8.3/../../../../pic32mx/lib\libc.a(doprnt.o)
 .reginfo       0x00000000       0x18 d:/program files (x86)/microchip/xc32/v2.30/bin/bin/../../lib/gcc/pic32mx/4.8.3/../../../../pic32mx/lib\libc.a(doprnt.o)
 .text          0x00000000        0x0 d:/program files (x86)/microchip/xc32/v2.30/bin/bin/../../lib/gcc/pic32mx/4.8.3/../../../../pic32mx/lib\libc.a(_fputc_simple.o)
 .data          0x00000000        0x0 d:/program files (x86)/microchip/xc32/v2.30/bin/bin/../../lib/gcc/pic32mx/4.8.3/../../../../pic32mx/lib\libc.a(_fputc_simple.o)
 .bss           0x00000000        0x0 d:/program files (x86)/microchip/xc32/v2.30/bin/bin/../../lib/gcc/pic32mx/4.8.3/../../../../pic32mx/lib\libc.a(_fputc_simple.o)
 .reginfo       0x00000000       0x18 d:/program files (x86)/microchip/xc32/v2.30/bin/bin/../../lib/gcc/pic32mx/4.8.3/../../../../pic32mx/lib\libc.a(_fputc_simple.o)
 .text          0x00000000        0x0 d:/program files (x86)/microchip/xc32/v2.30/bin/bin/../../lib/gcc/pic32mx/4.8.3/../../../../pic32mx/lib\libc.a(ctype.o)
 .data          0x00000000        0x0 d:/program files (x86)/microchip/xc32/v2.30/bin/bin/../../lib/gcc/pic32mx/4.8.3/../../../../pic32mx/lib\libc.a(ctype.o)
 .bss           0x00000000        0x0 d:/program files (x86)/microchip/xc32/v2.30/bin/bin/../../lib/gcc/pic32mx/4.8.3/../../../../pic32mx/lib\libc.a(ctype.o)
 .reginfo       0x00000000       0x18 d:/program files (x86)/microchip/xc32/v2.30/bin/bin/../../lib/gcc/pic32mx/4.8.3/../../../../pic32mx/lib\libc.a(ctype.o)
 .text          0x00000000        0x0 d:/program files (x86)/microchip/xc32/v2.30/bin/bin/../../lib/gcc/pic32mx/4.8.3/../../../../pic32mx/lib\libc.a(ldpowers.o)
 .data          0x00000000        0x0 d:/program files (x86)/microchip/xc32/v2.30/bin/bin/../../lib/gcc/pic32mx/4.8.3/../../../../pic32mx/lib\libc.a(ldpowers.o)
 .bss           0x00000000        0x0 d:/program files (x86)/microchip/xc32/v2.30/bin/bin/../../lib/gcc/pic32mx/4.8.3/../../../../pic32mx/lib\libc.a(ldpowers.o)
 .reginfo       0x00000000       0x18 d:/program files (x86)/microchip/xc32/v2.30/bin/bin/../../lib/gcc/pic32mx/4.8.3/../../../../pic32mx/lib\libc.a(ldpowers.o)
 .text          0x00000000        0x0 d:/program files (x86)/microchip/xc32/v2.30/bin/bin/../../lib/gcc/pic32mx/4.8.3/../../../../pic32mx/lib\libc.a(_flsbuf_simple.o)
 .data          0x00000000        0x0 d:/program files (x86)/microchip/xc32/v2.30/bin/bin/../../lib/gcc/pic32mx/4.8.3/../../../../pic32mx/lib\libc.a(_flsbuf_simple.o)
 .bss           0x00000000        0x0 d:/program files (x86)/microchip/xc32/v2.30/bin/bin/../../lib/gcc/pic32mx/4.8.3/../../../../pic32mx/lib\libc.a(_flsbuf_simple.o)
 .reginfo       0x00000000       0x18 d:/program files (x86)/microchip/xc32/v2.30/bin/bin/../../lib/gcc/pic32mx/4.8.3/../../../../pic32mx/lib\libc.a(_flsbuf_simple.o)
 .text          0x00000000        0x0 d:/program files (x86)/microchip/xc32/v2.30/bin/bin/../../lib/gcc/pic32mx/4.8.3/../../../../pic32mx/lib\libm.a(dpfrexp.o)
 .data          0x00000000        0x0 d:/program files (x86)/microchip/xc32/v2.30/bin/bin/../../lib/gcc/pic32mx/4.8.3/../../../../pic32mx/lib\libm.a(dpfrexp.o)
 .bss           0x00000000        0x0 d:/program files (x86)/microchip/xc32/v2.30/bin/bin/../../lib/gcc/pic32mx/4.8.3/../../../../pic32mx/lib\libm.a(dpfrexp.o)
 .reginfo       0x00000000       0x18 d:/program files (x86)/microchip/xc32/v2.30/bin/bin/../../lib/gcc/pic32mx/4.8.3/../../../../pic32mx/lib\libm.a(dpfrexp.o)
 .text          0x00000000        0x0 d:/program files (x86)/microchip/xc32/v2.30/bin/bin/../../lib/gcc/pic32mx/4.8.3/../../../../pic32mx/lib\libm.a(dp32div.o)
 .data          0x00000000        0x0 d:/program files (x86)/microchip/xc32/v2.30/bin/bin/../../lib/gcc/pic32mx/4.8.3/../../../../pic32mx/lib\libm.a(dp32div.o)
 .bss           0x00000000        0x0 d:/program files (x86)/microchip/xc32/v2.30/bin/bin/../../lib/gcc/pic32mx/4.8.3/../../../../pic32mx/lib\libm.a(dp32div.o)
 .reginfo       0x00000000       0x18 d:/program files (x86)/microchip/xc32/v2.30/bin/bin/../../lib/gcc/pic32mx/4.8.3/../../../../pic32mx/lib\libm.a(dp32div.o)
 .text          0x00000000        0x0 d:/program files (x86)/microchip/xc32/v2.30/bin/bin/../../lib/gcc/pic32mx/4.8.3/../../../../pic32mx/lib\libm.a(dp32mul.o)
 .data          0x00000000        0x0 d:/program files (x86)/microchip/xc32/v2.30/bin/bin/../../lib/gcc/pic32mx/4.8.3/../../../../pic32mx/lib\libm.a(dp32mul.o)
 .bss           0x00000000        0x0 d:/program files (x86)/microchip/xc32/v2.30/bin/bin/../../lib/gcc/pic32mx/4.8.3/../../../../pic32mx/lib\libm.a(dp32mul.o)
 .reginfo       0x00000000       0x18 d:/program files (x86)/microchip/xc32/v2.30/bin/bin/../../lib/gcc/pic32mx/4.8.3/../../../../pic32mx/lib\libm.a(dp32mul.o)
 .text          0x00000000        0x0 d:/program files (x86)/microchip/xc32/v2.30/bin/bin/../../lib/gcc/pic32mx/4.8.3/../../../../pic32mx/lib\libm.a(dp32subadd.o)
 .data          0x00000000        0x0 d:/program files (x86)/microchip/xc32/v2.30/bin/bin/../../lib/gcc/pic32mx/4.8.3/../../../../pic32mx/lib\libm.a(dp32subadd.o)
 .bss           0x00000000        0x0 d:/program files (x86)/microchip/xc32/v2.30/bin/bin/../../lib/gcc/pic32mx/4.8.3/../../../../pic32mx/lib\libm.a(dp32subadd.o)
 .reginfo       0x00000000       0x18 d:/program files (x86)/microchip/xc32/v2.30/bin/bin/../../lib/gcc/pic32mx/4.8.3/../../../../pic32mx/lib\libm.a(dp32subadd.o)
 .text          0x00000000        0x0 d:/program files (x86)/microchip/xc32/v2.30/bin/bin/../../lib/gcc/pic32mx/4.8.3/../../../../pic32mx/lib\libm.a(dpcmp.o)
 .data          0x00000000        0x0 d:/program files (x86)/microchip/xc32/v2.30/bin/bin/../../lib/gcc/pic32mx/4.8.3/../../../../pic32mx/lib\libm.a(dpcmp.o)
 .bss           0x00000000        0x0 d:/program files (x86)/microchip/xc32/v2.30/bin/bin/../../lib/gcc/pic32mx/4.8.3/../../../../pic32mx/lib\libm.a(dpcmp.o)
 .reginfo       0x00000000       0x18 d:/program files (x86)/microchip/xc32/v2.30/bin/bin/../../lib/gcc/pic32mx/4.8.3/../../../../pic32mx/lib\libm.a(dpcmp.o)
 .text          0x00000000        0x0 d:/program files (x86)/microchip/xc32/v2.30/bin/bin/../../lib/gcc/pic32mx/4.8.3/../../../../pic32mx/lib\libm.a(dptoul.o)
 .data          0x00000000        0x0 d:/program files (x86)/microchip/xc32/v2.30/bin/bin/../../lib/gcc/pic32mx/4.8.3/../../../../pic32mx/lib\libm.a(dptoul.o)
 .bss           0x00000000        0x0 d:/program files (x86)/microchip/xc32/v2.30/bin/bin/../../lib/gcc/pic32mx/4.8.3/../../../../pic32mx/lib\libm.a(dptoul.o)
 .reginfo       0x00000000       0x18 d:/program files (x86)/microchip/xc32/v2.30/bin/bin/../../lib/gcc/pic32mx/4.8.3/../../../../pic32mx/lib\libm.a(dptoul.o)
 .text          0x00000000        0x0 d:/program files (x86)/microchip/xc32/v2.30/bin/bin/../../lib/gcc/pic32mx/4.8.3/../../../../pic32mx/lib\libm.a(fp32div.o)
 .data          0x00000000        0x0 d:/program files (x86)/microchip/xc32/v2.30/bin/bin/../../lib/gcc/pic32mx/4.8.3/../../../../pic32mx/lib\libm.a(fp32div.o)
 .bss           0x00000000        0x0 d:/program files (x86)/microchip/xc32/v2.30/bin/bin/../../lib/gcc/pic32mx/4.8.3/../../../../pic32mx/lib\libm.a(fp32div.o)
 .reginfo       0x00000000       0x18 d:/program files (x86)/microchip/xc32/v2.30/bin/bin/../../lib/gcc/pic32mx/4.8.3/../../../../pic32mx/lib\libm.a(fp32div.o)
 .text          0x00000000        0x0 d:/program files (x86)/microchip/xc32/v2.30/bin/bin/../../lib/gcc/pic32mx/4.8.3/../../../../pic32mx/lib\libm.a(fp32mul.o)
 .data          0x00000000        0x0 d:/program files (x86)/microchip/xc32/v2.30/bin/bin/../../lib/gcc/pic32mx/4.8.3/../../../../pic32mx/lib\libm.a(fp32mul.o)
 .bss           0x00000000        0x0 d:/program files (x86)/microchip/xc32/v2.30/bin/bin/../../lib/gcc/pic32mx/4.8.3/../../../../pic32mx/lib\libm.a(fp32mul.o)
 .reginfo       0x00000000       0x18 d:/program files (x86)/microchip/xc32/v2.30/bin/bin/../../lib/gcc/pic32mx/4.8.3/../../../../pic32mx/lib\libm.a(fp32mul.o)
 .text          0x00000000        0x0 d:/program files (x86)/microchip/xc32/v2.30/bin/bin/../../lib/gcc/pic32mx/4.8.3/../../../../pic32mx/lib\libm.a(fp32subadd.o)
 .data          0x00000000        0x0 d:/program files (x86)/microchip/xc32/v2.30/bin/bin/../../lib/gcc/pic32mx/4.8.3/../../../../pic32mx/lib\libm.a(fp32subadd.o)
 .bss           0x00000000        0x0 d:/program files (x86)/microchip/xc32/v2.30/bin/bin/../../lib/gcc/pic32mx/4.8.3/../../../../pic32mx/lib\libm.a(fp32subadd.o)
 .reginfo       0x00000000       0x18 d:/program files (x86)/microchip/xc32/v2.30/bin/bin/../../lib/gcc/pic32mx/4.8.3/../../../../pic32mx/lib\libm.a(fp32subadd.o)
 .text          0x00000000        0x0 d:/program files (x86)/microchip/xc32/v2.30/bin/bin/../../lib/gcc/pic32mx/4.8.3/../../../../pic32mx/lib\libm.a(fpcmp.o)
 .data          0x00000000        0x0 d:/program files (x86)/microchip/xc32/v2.30/bin/bin/../../lib/gcc/pic32mx/4.8.3/../../../../pic32mx/lib\libm.a(fpcmp.o)
 .bss           0x00000000        0x0 d:/program files (x86)/microchip/xc32/v2.30/bin/bin/../../lib/gcc/pic32mx/4.8.3/../../../../pic32mx/lib\libm.a(fpcmp.o)
 .reginfo       0x00000000       0x18 d:/program files (x86)/microchip/xc32/v2.30/bin/bin/../../lib/gcc/pic32mx/4.8.3/../../../../pic32mx/lib\libm.a(fpcmp.o)
 .text          0x00000000        0x0 d:/program files (x86)/microchip/xc32/v2.30/bin/bin/../../lib/gcc/pic32mx/4.8.3/../../../../pic32mx/lib\libm.a(fptodp.o)
 .data          0x00000000        0x0 d:/program files (x86)/microchip/xc32/v2.30/bin/bin/../../lib/gcc/pic32mx/4.8.3/../../../../pic32mx/lib\libm.a(fptodp.o)
 .bss           0x00000000        0x0 d:/program files (x86)/microchip/xc32/v2.30/bin/bin/../../lib/gcc/pic32mx/4.8.3/../../../../pic32mx/lib\libm.a(fptodp.o)
 .reginfo       0x00000000       0x18 d:/program files (x86)/microchip/xc32/v2.30/bin/bin/../../lib/gcc/pic32mx/4.8.3/../../../../pic32mx/lib\libm.a(fptodp.o)
 .text          0x00000000        0x0 d:/program files (x86)/microchip/xc32/v2.30/bin/bin/../../lib/gcc/pic32mx/4.8.3/../../../../pic32mx/lib\libm.a(fptoul.o)
 .data          0x00000000        0x0 d:/program files (x86)/microchip/xc32/v2.30/bin/bin/../../lib/gcc/pic32mx/4.8.3/../../../../pic32mx/lib\libm.a(fptoul.o)
 .bss           0x00000000        0x0 d:/program files (x86)/microchip/xc32/v2.30/bin/bin/../../lib/gcc/pic32mx/4.8.3/../../../../pic32mx/lib\libm.a(fptoul.o)
 .reginfo       0x00000000       0x18 d:/program files (x86)/microchip/xc32/v2.30/bin/bin/../../lib/gcc/pic32mx/4.8.3/../../../../pic32mx/lib\libm.a(fptoul.o)
 .text.fptoul   0x00000000       0x7c d:/program files (x86)/microchip/xc32/v2.30/bin/bin/../../lib/gcc/pic32mx/4.8.3/../../../../pic32mx/lib\libm.a(fptoul.o)
 .text          0x00000000        0x0 d:/program files (x86)/microchip/xc32/v2.30/bin/bin/../../lib/gcc/pic32mx/4.8.3/../../../../pic32mx/lib\libm.a(sitofp.o)
 .data          0x00000000        0x0 d:/program files (x86)/microchip/xc32/v2.30/bin/bin/../../lib/gcc/pic32mx/4.8.3/../../../../pic32mx/lib\libm.a(sitofp.o)
 .bss           0x00000000        0x0 d:/program files (x86)/microchip/xc32/v2.30/bin/bin/../../lib/gcc/pic32mx/4.8.3/../../../../pic32mx/lib\libm.a(sitofp.o)
 .reginfo       0x00000000       0x18 d:/program files (x86)/microchip/xc32/v2.30/bin/bin/../../lib/gcc/pic32mx/4.8.3/../../../../pic32mx/lib\libm.a(sitofp.o)
 .text          0x00000000        0x0 d:/program files (x86)/microchip/xc32/v2.30/bin/bin/../../lib/gcc/pic32mx/4.8.3/../../../../pic32mx/lib\libe.a(_fixunsdfdi.o)
 .data          0x00000000        0x0 d:/program files (x86)/microchip/xc32/v2.30/bin/bin/../../lib/gcc/pic32mx/4.8.3/../../../../pic32mx/lib\libe.a(_fixunsdfdi.o)
 .bss           0x00000000        0x0 d:/program files (x86)/microchip/xc32/v2.30/bin/bin/../../lib/gcc/pic32mx/4.8.3/../../../../pic32mx/lib\libe.a(_fixunsdfdi.o)
 .reginfo       0x00000000       0x18 d:/program files (x86)/microchip/xc32/v2.30/bin/bin/../../lib/gcc/pic32mx/4.8.3/../../../../pic32mx/lib\libe.a(_fixunsdfdi.o)
 .text          0x00000000        0x0 d:/program files (x86)/microchip/xc32/v2.30/bin/bin/../../lib/gcc/pic32mx/4.8.3/../../../../pic32mx/lib\libe.a(_orderdf2.o)
 .data          0x00000000        0x0 d:/program files (x86)/microchip/xc32/v2.30/bin/bin/../../lib/gcc/pic32mx/4.8.3/../../../../pic32mx/lib\libe.a(_orderdf2.o)
 .bss           0x00000000        0x0 d:/program files (x86)/microchip/xc32/v2.30/bin/bin/../../lib/gcc/pic32mx/4.8.3/../../../../pic32mx/lib\libe.a(_orderdf2.o)
 .reginfo       0x00000000       0x18 d:/program files (x86)/microchip/xc32/v2.30/bin/bin/../../lib/gcc/pic32mx/4.8.3/../../../../pic32mx/lib\libe.a(_orderdf2.o)
 .text          0x00000000        0x0 d:/program files (x86)/microchip/xc32/v2.30/bin/bin/../../lib/gcc/pic32mx/4.8.3/../../../../pic32mx/lib\libe.a(_fixdfdi.o)
 .data          0x00000000        0x0 d:/program files (x86)/microchip/xc32/v2.30/bin/bin/../../lib/gcc/pic32mx/4.8.3/../../../../pic32mx/lib\libe.a(_fixdfdi.o)
 .bss           0x00000000        0x0 d:/program files (x86)/microchip/xc32/v2.30/bin/bin/../../lib/gcc/pic32mx/4.8.3/../../../../pic32mx/lib\libe.a(_fixdfdi.o)
 .reginfo       0x00000000       0x18 d:/program files (x86)/microchip/xc32/v2.30/bin/bin/../../lib/gcc/pic32mx/4.8.3/../../../../pic32mx/lib\libe.a(_fixdfdi.o)
 .data          0x00000000        0x0 d:/program files (x86)/microchip/xc32/v2.30/bin/bin/../../lib/gcc/pic32mx/4.8.3\libgcc.a(_floatundidf.o)
 .bss           0x00000000        0x0 d:/program files (x86)/microchip/xc32/v2.30/bin/bin/../../lib/gcc/pic32mx/4.8.3\libgcc.a(_floatundidf.o)
 .reginfo       0x00000000       0x18 d:/program files (x86)/microchip/xc32/v2.30/bin/bin/../../lib/gcc/pic32mx/4.8.3\libgcc.a(_floatundidf.o)
 .data          0x00000000        0x0 d:/program files (x86)/microchip/xc32/v2.30/bin/bin/../../lib/gcc/pic32mx/4.8.3\libgcc.a(_udivdi3.o)
 .bss           0x00000000        0x0 d:/program files (x86)/microchip/xc32/v2.30/bin/bin/../../lib/gcc/pic32mx/4.8.3\libgcc.a(_udivdi3.o)
 .reginfo       0x00000000       0x18 d:/program files (x86)/microchip/xc32/v2.30/bin/bin/../../lib/gcc/pic32mx/4.8.3\libgcc.a(_udivdi3.o)
 .data          0x00000000        0x0 d:/program files (x86)/microchip/xc32/v2.30/bin/bin/../../lib/gcc/pic32mx/4.8.3\libgcc.a(_umoddi3.o)
 .bss           0x00000000        0x0 d:/program files (x86)/microchip/xc32/v2.30/bin/bin/../../lib/gcc/pic32mx/4.8.3\libgcc.a(_umoddi3.o)
 .reginfo       0x00000000       0x18 d:/program files (x86)/microchip/xc32/v2.30/bin/bin/../../lib/gcc/pic32mx/4.8.3\libgcc.a(_umoddi3.o)
 .data          0x00000000        0x0 d:/program files (x86)/microchip/xc32/v2.30/bin/bin/../../lib/gcc/pic32mx/4.8.3\libgcc.a(floatunsidf.o)
 .bss           0x00000000        0x0 d:/program files (x86)/microchip/xc32/v2.30/bin/bin/../../lib/gcc/pic32mx/4.8.3\libgcc.a(floatunsidf.o)
 .reginfo       0x00000000       0x18 d:/program files (x86)/microchip/xc32/v2.30/bin/bin/../../lib/gcc/pic32mx/4.8.3\libgcc.a(floatunsidf.o)
 .text          0x00000000        0x0 d:/program files (x86)/microchip/xc32/v2.30/bin/bin/../../lib/gcc/pic32mx/4.8.3/../../../../pic32mx/lib\libpic32.a(write.o)
 .data          0x00000000        0x0 d:/program files (x86)/microchip/xc32/v2.30/bin/bin/../../lib/gcc/pic32mx/4.8.3/../../../../pic32mx/lib\libpic32.a(write.o)
 .bss           0x00000000        0x0 d:/program files (x86)/microchip/xc32/v2.30/bin/bin/../../lib/gcc/pic32mx/4.8.3/../../../../pic32mx/lib\libpic32.a(write.o)
 .reginfo       0x00000000       0x18 d:/program files (x86)/microchip/xc32/v2.30/bin/bin/../../lib/gcc/pic32mx/4.8.3/../../../../pic32mx/lib\libpic32.a(write.o)
 .text          0x00000000        0x0 d:/program files (x86)/microchip/xc32/v2.30/bin/bin/../../lib/gcc/pic32mx/4.8.3/../../../../pic32mx/lib\libm.a(litodp.o)
 .data          0x00000000        0x0 d:/program files (x86)/microchip/xc32/v2.30/bin/bin/../../lib/gcc/pic32mx/4.8.3/../../../../pic32mx/lib\libm.a(litodp.o)
 .bss           0x00000000        0x0 d:/program files (x86)/microchip/xc32/v2.30/bin/bin/../../lib/gcc/pic32mx/4.8.3/../../../../pic32mx/lib\libm.a(litodp.o)
 .reginfo       0x00000000       0x18 d:/program files (x86)/microchip/xc32/v2.30/bin/bin/../../lib/gcc/pic32mx/4.8.3/../../../../pic32mx/lib\libm.a(litodp.o)

Memory Configuration

Name             Origin             Length             Attributes
kseg0_data_mem   0x80000000         0x00000200
kseg1_data_mem   0xa0000000         0x00020000         w !x
kseg0_boot_mem   0x9fc00490         0x00000970
kseg1_boot_mem   0xbfc00000         0x00000490
kseg0_program_mem 0x9d000000         0x00080000         xr
exception_mem    0x9fc01000         0x00001000
debug_exec_mem   0xbfc02000         0x00000ff0
config3          0xbfc02ff0         0x00000004
config2          0xbfc02ff4         0x00000004
config1          0xbfc02ff8         0x00000004
config0          0xbfc02ffc         0x00000004
sfrs             0xbf800000         0x00100000
configsfrs       0xbfc02ff0         0x00000010
*default*        0x00000000         0xffffffff

Linker script and memory map


reserve_data_0_kseg0
                0x80000000      0x200
                0x80000000        0x2 SHORT 0x0
                0x000001fd                . = 0x1fd
 *fill*         0x80000002      0x1fb 
                0x80000200                . = ALIGN (0x4)
 *fill*         0x800001fd        0x3 

reserve_data_0_kseg1
                0xa0000000      0x200
                0xa0000000        0x2 SHORT 0x0
                0x000001fd                . = 0x1fd
 *fill*         0xa0000002      0x1fb 
                0xa0000200                . = ALIGN (0x4)
 *fill*         0xa00001fd        0x3 

reserve_boot_0x1fc02000_kseg0
                0x9fc02000      0xff0
                0x9fc02000        0x2 SHORT 0x0
                0x00000760                . = 0x760
 *fill*         0x9fc02002      0x75e 
                0x9fc02760                . = ALIGN (0x4)
                0x9fc02760        0x2 SHORT 0x0
                0x00000ff0                . = 0xff0
 *fill*         0x9fc02762      0x88e 
                0x9fc02ff0                . = ALIGN (0x4)

reserve_boot_0x1fc02000_kseg1
                0xbfc02000      0xff0
                0xbfc02000        0x2 SHORT 0x0
                0x00000760                . = 0x760
 *fill*         0xbfc02002      0x75e 
                0xbfc02760                . = ALIGN (0x4)
                0xbfc02760        0x2 SHORT 0x0
                0x00000ff0                . = 0xff0
 *fill*         0xbfc02762      0x88e 
                0xbfc02ff0                . = ALIGN (0x4)
LOAD d:/program files (x86)/microchip/xc32/v2.30/bin/bin/../../lib/gcc/pic32mx/4.8.3/../../../../pic32mx/lib\software-debug-break.o
LOAD build/default/debug/_ext/897820976/drv_at24.o
LOAD build/default/debug/_ext/60163342/plib_adc.o
LOAD build/default/debug/_ext/60165520/plib_clk.o
LOAD build/default/debug/_ext/1865200349/plib_evic.o
LOAD build/default/debug/_ext/1865254177/plib_gpio.o
LOAD build/default/debug/_ext/60169480/plib_i2c1.o
LOAD build/default/debug/_ext/60176403/plib_nvm.o
LOAD build/default/debug/_ext/1865569570/plib_rcon.o
LOAD build/default/debug/_ext/1865657120/plib_uart3.o
LOAD build/default/debug/_ext/1865657120/plib_uart1.o
LOAD build/default/debug/_ext/14461671/sys_dma.o
LOAD build/default/debug/_ext/1881668453/sys_int.o
LOAD build/default/debug/_ext/1171490990/initialization.o
LOAD build/default/debug/_ext/1171490990/interrupts.o
LOAD build/default/debug/_ext/1171490990/interrupts_a.o
LOAD build/default/debug/_ext/1171490990/exceptions.o
LOAD build/default/debug/_ext/1171490990/freertos_hooks.o
LOAD build/default/debug/_ext/1171490990/tasks.o
LOAD build/default/debug/_ext/1360937237/audits.o
LOAD build/default/debug/_ext/1360937237/parameters.o
LOAD build/default/debug/_ext/1360937237/dataCommun.o
LOAD build/default/debug/_ext/1665200909/heap_1.o
LOAD build/default/debug/_ext/951553248/port.o
LOAD build/default/debug/_ext/951553248/port_asm.o
LOAD build/default/debug/_ext/404212886/croutine.o
LOAD build/default/debug/_ext/404212886/list.o
LOAD build/default/debug/_ext/404212886/queue.o
LOAD build/default/debug/_ext/404212886/FreeRTOS_tasks.o
LOAD build/default/debug/_ext/404212886/timers.o
LOAD build/default/debug/_ext/404212886/event_groups.o
LOAD build/default/debug/_ext/404212886/stream_buffer.o
LOAD build/default/debug/_ext/659830161/MDB.o
LOAD build/default/debug/_ext/659830161/MDB_CG.o
LOAD build/default/debug/_ext/659830161/MDB_BV.o
LOAD build/default/debug/_ext/1529399856/osal_freertos.o
LOAD build/default/debug/_ext/1360937237/hd44780.o
LOAD build/default/debug/_ext/1360937237/delay_us.o
LOAD build/default/debug/_ext/1360937237/leds.o
LOAD build/default/debug/_ext/1360937237/DS18B20.o
LOAD build/default/debug/_ext/1360937237/contacts.o
LOAD build/default/debug/_ext/1360937237/moteurs.o
LOAD build/default/debug/_ext/1360937237/trap_security.o
LOAD build/default/debug/_ext/1360937237/main.o
LOAD build/default/debug/_ext/1360937237/mainboard2.o
                0x00000001                __MPLAB_BUILD = 0x1
                0x00000001                __MPLAB_DEBUG = 0x1
                0x00000001                __DEBUG = 0x1
                0x00000001                __MPLAB_DEBUGGER_REAL_ICE = 0x1
                0x00000200                _min_heap_size = 0x200
LOAD C:\Users\ADMINI~1\AppData\Local\Temp\cc3xLHuC.o
LOAD C:\Users\ADMINI~1\AppData\Local\Temp\ccE5XcAE.o
LOAD C:\Users\ADMINI~1\AppData\Local\Temp\cc0AzwVc.o
LOAD d:/program files (x86)/microchip/xc32/v2.30/bin/bin/../../lib/gcc/pic32mx/4.8.3/../../../../pic32mx/lib\pic32_software_reset.o
                0x00000400                PROVIDE (_min_stack_size, 0x400)
START GROUP
LOAD d:/program files (x86)/microchip/xc32/v2.30/bin/bin/../../lib/gcc/pic32mx/4.8.3/../../../../pic32mx/lib/./proc/32MX470F512L\processor.o
END GROUP
START GROUP
LOAD libmchp_peripheral.a
END GROUP
START GROUP
LOAD libmchp_peripheral_32MX470F512L.a
END GROUP
                0x00000001                PROVIDE (_vector_spacing, 0x1)
                0x9fc01000                PROVIDE (_ebase_address, 0x9fc01000)
                0xbfc00000                _RESET_ADDR = 0xbfc00000
                0xbfc00380                _BEV_EXCPT_ADDR = 0xbfc00380
                0xbfc00480                _DBG_EXCPT_ADDR = 0xbfc00480
                0xbfc02000                _DBG_CODE_ADDR = 0xbfc02000
                0x00000ff0                _DBG_CODE_SIZE = 0xff0
                0x9fc01180                _GEN_EXCPT_ADDR = (_ebase_address + 0x180)

.config_BFC02FF0
                0xbfc02ff0        0x4
 *(.config_BFC02FF0)
 .config_BFC02FF0
                0xbfc02ff0        0x4 build/default/debug/_ext/1171490990/initialization.o

.config_BFC02FF4
                0xbfc02ff4        0x4
 *(.config_BFC02FF4)
 .config_BFC02FF4
                0xbfc02ff4        0x4 build/default/debug/_ext/1171490990/initialization.o

.config_BFC02FF8
                0xbfc02ff8        0x4
 *(.config_BFC02FF8)
 .config_BFC02FF8
                0xbfc02ff8        0x4 build/default/debug/_ext/1171490990/initialization.o

.config_BFC02FFC
                0xbfc02ffc        0x4
 *(.config_BFC02FFC)
 .config_BFC02FFC
                0xbfc02ffc        0x4 build/default/debug/_ext/1171490990/initialization.o
                0xbfc02000                PROVIDE (_DBG_CODE_ADDR, 0xbfc02000)
                0x00000ff0                PROVIDE (_DBG_CODE_SIZE, 0xff0)

.reset          0xbfc00000      0x19c
 *(.reset)
 .reset         0xbfc00000        0x8 C:\Users\ADMINI~1\AppData\Local\Temp\cc3xLHuC.o
                0xbfc00000                _reset
 *(.reset.startup)
 .reset.startup
                0xbfc00008      0x194 C:\Users\ADMINI~1\AppData\Local\Temp\cc3xLHuC.o
                0xbfc00008                _startup

.bev_excpt      0xbfc00380       0x10
 *(.bev_handler)
 .bev_handler   0xbfc00380       0x10 C:\Users\ADMINI~1\AppData\Local\Temp\cc3xLHuC.o

.dbg_excpt      0xbfc00480        0x0
                0xbfc00480                . = (. + DEFINED (_DEBUGGER)?0x8:0x0)

.dbg_code       0xbfc02000        0x0
                0xbfc02000                . = (. + DEFINED (_DEBUGGER)?_DBG_CODE_SIZE:0x0)

.app_excpt      0x9fc01180       0x10
 *(.gen_handler)
 .gen_handler   0x9fc01180       0x10 C:\Users\ADMINI~1\AppData\Local\Temp\cc3xLHuC.o

.vector_0       0x9fc01200        0x8
 *(.vector_0)
 .vector_0      0x9fc01200        0x8 d:/program files (x86)/microchip/xc32/v2.30/bin/bin/../../lib/gcc/pic32mx/4.8.3/../../../../pic32mx/lib\libpic32.a(vector0.o)
                0x9fc01200                __vector_dispatch_0
                0x00000001                ASSERT (((_vector_spacing == 0x0) || (SIZEOF (.vector_0) <= (_vector_spacing << 0x5))), function at exception vector 0 too large)

.vector_1       0x9fc01220        0x8
 *(.vector_1)
 .vector_1      0x9fc01220        0x8 build/default/debug/_ext/951553248/port.o
                0x9fc01220                __vector_dispatch_1
                0x00000001                ASSERT (((_vector_spacing == 0x0) || (SIZEOF (.vector_1) <= (_vector_spacing << 0x5))), function at exception vector 1 too large)

.vector_2       0x9fc01240        0x8
 *(.vector_2)
 .vector_2      0x9fc01240        0x8 d:/program files (x86)/microchip/xc32/v2.30/bin/bin/../../lib/gcc/pic32mx/4.8.3/../../../../pic32mx/lib\libpic32.a(vector2.o)
                0x9fc01240                __vector_dispatch_2
                0x00000001                ASSERT (((_vector_spacing == 0x0) || (SIZEOF (.vector_2) <= (_vector_spacing << 0x5))), function at exception vector 2 too large)

.vector_3       0x9fc01260        0x8
 *(.vector_3)
 .vector_3      0x9fc01260        0x8 d:/program files (x86)/microchip/xc32/v2.30/bin/bin/../../lib/gcc/pic32mx/4.8.3/../../../../pic32mx/lib\libpic32.a(vector3.o)
                0x9fc01260                __vector_dispatch_3
                0x00000001                ASSERT (((_vector_spacing == 0x0) || (SIZEOF (.vector_3) <= (_vector_spacing << 0x5))), function at exception vector 3 too large)

.vector_4       0x9fc01280        0x8
 *(.vector_4)
 .vector_4      0x9fc01280        0x8 build/default/debug/_ext/951553248/port.o
                0x9fc01280                __vector_dispatch_4
                0x00000001                ASSERT (((_vector_spacing == 0x0) || (SIZEOF (.vector_4) <= (_vector_spacing << 0x5))), function at exception vector 4 too large)

.vector_5       0x9fc012a0        0x8
 *(.vector_5)
 .vector_5      0x9fc012a0        0x8 d:/program files (x86)/microchip/xc32/v2.30/bin/bin/../../lib/gcc/pic32mx/4.8.3/../../../../pic32mx/lib\libpic32.a(vector5.o)
                0x9fc012a0                __vector_dispatch_5
                0x00000001                ASSERT (((_vector_spacing == 0x0) || (SIZEOF (.vector_5) <= (_vector_spacing << 0x5))), function at exception vector 5 too large)

.vector_6       0x9fc012c0        0x8
 *(.vector_6)
 .vector_6      0x9fc012c0        0x8 d:/program files (x86)/microchip/xc32/v2.30/bin/bin/../../lib/gcc/pic32mx/4.8.3/../../../../pic32mx/lib\libpic32.a(vector6.o)
                0x9fc012c0                __vector_dispatch_6
                0x00000001                ASSERT (((_vector_spacing == 0x0) || (SIZEOF (.vector_6) <= (_vector_spacing << 0x5))), function at exception vector 6 too large)

.vector_7       0x9fc012e0        0x8
 *(.vector_7)
 .vector_7      0x9fc012e0        0x8 d:/program files (x86)/microchip/xc32/v2.30/bin/bin/../../lib/gcc/pic32mx/4.8.3/../../../../pic32mx/lib\libpic32.a(vector7.o)
                0x9fc012e0                __vector_dispatch_7
                0x00000001                ASSERT (((_vector_spacing == 0x0) || (SIZEOF (.vector_7) <= (_vector_spacing << 0x5))), function at exception vector 7 too large)

.vector_8       0x9fc01300        0x8
 *(.vector_8)
 .vector_8      0x9fc01300        0x8 d:/program files (x86)/microchip/xc32/v2.30/bin/bin/../../lib/gcc/pic32mx/4.8.3/../../../../pic32mx/lib\libpic32.a(vector8.o)
                0x9fc01300                __vector_dispatch_8
                0x00000001                ASSERT (((_vector_spacing == 0x0) || (SIZEOF (.vector_8) <= (_vector_spacing << 0x5))), function at exception vector 8 too large)

.vector_9       0x9fc01320        0x8
 *(.vector_9)
 .vector_9      0x9fc01320        0x8 d:/program files (x86)/microchip/xc32/v2.30/bin/bin/../../lib/gcc/pic32mx/4.8.3/../../../../pic32mx/lib\libpic32.a(vector9.o)
                0x9fc01320                __vector_dispatch_9
                0x00000001                ASSERT (((_vector_spacing == 0x0) || (SIZEOF (.vector_9) <= (_vector_spacing << 0x5))), function at exception vector 9 too large)

.vector_10      0x9fc01340        0x8
 *(.vector_10)
 .vector_10     0x9fc01340        0x8 d:/program files (x86)/microchip/xc32/v2.30/bin/bin/../../lib/gcc/pic32mx/4.8.3/../../../../pic32mx/lib\libpic32.a(vector10.o)
                0x9fc01340                __vector_dispatch_10
                0x00000001                ASSERT (((_vector_spacing == 0x0) || (SIZEOF (.vector_10) <= (_vector_spacing << 0x5))), function at exception vector 10 too large)

.vector_11      0x9fc01360        0x8
 *(.vector_11)
 .vector_11     0x9fc01360        0x8 d:/program files (x86)/microchip/xc32/v2.30/bin/bin/../../lib/gcc/pic32mx/4.8.3/../../../../pic32mx/lib\libpic32.a(vector11.o)
                0x9fc01360                __vector_dispatch_11
                0x00000001                ASSERT (((_vector_spacing == 0x0) || (SIZEOF (.vector_11) <= (_vector_spacing << 0x5))), function at exception vector 11 too large)

.vector_12      0x9fc01380        0x8
 *(.vector_12)
 .vector_12     0x9fc01380        0x8 d:/program files (x86)/microchip/xc32/v2.30/bin/bin/../../lib/gcc/pic32mx/4.8.3/../../../../pic32mx/lib\libpic32.a(vector12.o)
                0x9fc01380                __vector_dispatch_12
                0x00000001                ASSERT (((_vector_spacing == 0x0) || (SIZEOF (.vector_12) <= (_vector_spacing << 0x5))), function at exception vector 12 too large)

.vector_13      0x9fc013a0        0x8
 *(.vector_13)
 .vector_13     0x9fc013a0        0x8 d:/program files (x86)/microchip/xc32/v2.30/bin/bin/../../lib/gcc/pic32mx/4.8.3/../../../../pic32mx/lib\libpic32.a(vector13.o)
                0x9fc013a0                __vector_dispatch_13
                0x00000001                ASSERT (((_vector_spacing == 0x0) || (SIZEOF (.vector_13) <= (_vector_spacing << 0x5))), function at exception vector 13 too large)

.vector_14      0x9fc013c0        0x8
 *(.vector_14)
 .vector_14     0x9fc013c0        0x8 d:/program files (x86)/microchip/xc32/v2.30/bin/bin/../../lib/gcc/pic32mx/4.8.3/../../../../pic32mx/lib\libpic32.a(vector14.o)
                0x9fc013c0                __vector_dispatch_14
                0x00000001                ASSERT (((_vector_spacing == 0x0) || (SIZEOF (.vector_14) <= (_vector_spacing << 0x5))), function at exception vector 14 too large)

.vector_15      0x9fc013e0        0x8
 *(.vector_15)
 .vector_15     0x9fc013e0        0x8 d:/program files (x86)/microchip/xc32/v2.30/bin/bin/../../lib/gcc/pic32mx/4.8.3/../../../../pic32mx/lib\libpic32.a(vector15.o)
                0x9fc013e0                __vector_dispatch_15
                0x00000001                ASSERT (((_vector_spacing == 0x0) || (SIZEOF (.vector_15) <= (_vector_spacing << 0x5))), function at exception vector 15 too large)

.vector_16      0x9fc01400        0x8
 *(.vector_16)
 .vector_16     0x9fc01400        0x8 d:/program files (x86)/microchip/xc32/v2.30/bin/bin/../../lib/gcc/pic32mx/4.8.3/../../../../pic32mx/lib\libpic32.a(vector16.o)
                0x9fc01400                __vector_dispatch_16
                0x00000001                ASSERT (((_vector_spacing == 0x0) || (SIZEOF (.vector_16) <= (_vector_spacing << 0x5))), function at exception vector 16 too large)

.vector_17      0x9fc01420        0x8
 *(.vector_17)
 .vector_17     0x9fc01420        0x8 d:/program files (x86)/microchip/xc32/v2.30/bin/bin/../../lib/gcc/pic32mx/4.8.3/../../../../pic32mx/lib\libpic32.a(vector17.o)
                0x9fc01420                __vector_dispatch_17
                0x00000001                ASSERT (((_vector_spacing == 0x0) || (SIZEOF (.vector_17) <= (_vector_spacing << 0x5))), function at exception vector 17 too large)

.vector_18      0x9fc01440        0x8
 *(.vector_18)
 .vector_18     0x9fc01440        0x8 d:/program files (x86)/microchip/xc32/v2.30/bin/bin/../../lib/gcc/pic32mx/4.8.3/../../../../pic32mx/lib\libpic32.a(vector18.o)
                0x9fc01440                __vector_dispatch_18
                0x00000001                ASSERT (((_vector_spacing == 0x0) || (SIZEOF (.vector_18) <= (_vector_spacing << 0x5))), function at exception vector 18 too large)

.vector_19      0x9fc01460        0x8
 *(.vector_19)
 .vector_19     0x9fc01460        0x8 d:/program files (x86)/microchip/xc32/v2.30/bin/bin/../../lib/gcc/pic32mx/4.8.3/../../../../pic32mx/lib\libpic32.a(vector19.o)
                0x9fc01460                __vector_dispatch_19
                0x00000001                ASSERT (((_vector_spacing == 0x0) || (SIZEOF (.vector_19) <= (_vector_spacing << 0x5))), function at exception vector 19 too large)

.vector_20      0x9fc01480        0x8
 *(.vector_20)
 .vector_20     0x9fc01480        0x8 d:/program files (x86)/microchip/xc32/v2.30/bin/bin/../../lib/gcc/pic32mx/4.8.3/../../../../pic32mx/lib\libpic32.a(vector20.o)
                0x9fc01480                __vector_dispatch_20
                0x00000001                ASSERT (((_vector_spacing == 0x0) || (SIZEOF (.vector_20) <= (_vector_spacing << 0x5))), function at exception vector 20 too large)

.vector_21      0x9fc014a0        0x8
 *(.vector_21)
 .vector_21     0x9fc014a0        0x8 d:/program files (x86)/microchip/xc32/v2.30/bin/bin/../../lib/gcc/pic32mx/4.8.3/../../../../pic32mx/lib\libpic32.a(vector21.o)
                0x9fc014a0                __vector_dispatch_21
                0x00000001                ASSERT (((_vector_spacing == 0x0) || (SIZEOF (.vector_21) <= (_vector_spacing << 0x5))), function at exception vector 21 too large)

.vector_22      0x9fc014c0        0x8
 *(.vector_22)
 .vector_22     0x9fc014c0        0x8 d:/program files (x86)/microchip/xc32/v2.30/bin/bin/../../lib/gcc/pic32mx/4.8.3/../../../../pic32mx/lib\libpic32.a(vector22.o)
                0x9fc014c0                __vector_dispatch_22
                0x00000001                ASSERT (((_vector_spacing == 0x0) || (SIZEOF (.vector_22) <= (_vector_spacing << 0x5))), function at exception vector 22 too large)

.vector_23      0x9fc014e0       0x10
 *(.vector_23)
 .vector_23     0x9fc014e0       0x10 build/default/debug/_ext/1171490990/interrupts_a.o
                0x9fc014e0                __vector_dispatch_23
                0x00000001                ASSERT (((_vector_spacing == 0x0) || (SIZEOF (.vector_23) <= (_vector_spacing << 0x5))), function at exception vector 23 too large)

.vector_24      0x9fc01500        0x8
 *(.vector_24)
 .vector_24     0x9fc01500        0x8 d:/program files (x86)/microchip/xc32/v2.30/bin/bin/../../lib/gcc/pic32mx/4.8.3/../../../../pic32mx/lib\libpic32.a(vector24.o)
                0x9fc01500                __vector_dispatch_24
                0x00000001                ASSERT (((_vector_spacing == 0x0) || (SIZEOF (.vector_24) <= (_vector_spacing << 0x5))), function at exception vector 24 too large)

.vector_25      0x9fc01520        0x8
 *(.vector_25)
 .vector_25     0x9fc01520        0x8 d:/program files (x86)/microchip/xc32/v2.30/bin/bin/../../lib/gcc/pic32mx/4.8.3/../../../../pic32mx/lib\libpic32.a(vector25.o)
                0x9fc01520                __vector_dispatch_25
                0x00000001                ASSERT (((_vector_spacing == 0x0) || (SIZEOF (.vector_25) <= (_vector_spacing << 0x5))), function at exception vector 25 too large)

.vector_26      0x9fc01540        0x8
 *(.vector_26)
 .vector_26     0x9fc01540        0x8 d:/program files (x86)/microchip/xc32/v2.30/bin/bin/../../lib/gcc/pic32mx/4.8.3/../../../../pic32mx/lib\libpic32.a(vector26.o)
                0x9fc01540                __vector_dispatch_26
                0x00000001                ASSERT (((_vector_spacing == 0x0) || (SIZEOF (.vector_26) <= (_vector_spacing << 0x5))), function at exception vector 26 too large)

.vector_27      0x9fc01560        0x8
 *(.vector_27)
 .vector_27     0x9fc01560        0x8 d:/program files (x86)/microchip/xc32/v2.30/bin/bin/../../lib/gcc/pic32mx/4.8.3/../../../../pic32mx/lib\libpic32.a(vector27.o)
                0x9fc01560                __vector_dispatch_27
                0x00000001                ASSERT (((_vector_spacing == 0x0) || (SIZEOF (.vector_27) <= (_vector_spacing << 0x5))), function at exception vector 27 too large)

.vector_28      0x9fc01580        0x8
 *(.vector_28)
 .vector_28     0x9fc01580        0x8 d:/program files (x86)/microchip/xc32/v2.30/bin/bin/../../lib/gcc/pic32mx/4.8.3/../../../../pic32mx/lib\libpic32.a(vector28.o)
                0x9fc01580                __vector_dispatch_28
                0x00000001                ASSERT (((_vector_spacing == 0x0) || (SIZEOF (.vector_28) <= (_vector_spacing << 0x5))), function at exception vector 28 too large)

.vector_29      0x9fc015a0        0x8
 *(.vector_29)
 .vector_29     0x9fc015a0        0x8 d:/program files (x86)/microchip/xc32/v2.30/bin/bin/../../lib/gcc/pic32mx/4.8.3/../../../../pic32mx/lib\libpic32.a(vector29.o)
                0x9fc015a0                __vector_dispatch_29
                0x00000001                ASSERT (((_vector_spacing == 0x0) || (SIZEOF (.vector_29) <= (_vector_spacing << 0x5))), function at exception vector 29 too large)

.vector_30      0x9fc015c0        0x8
 *(.vector_30)
 .vector_30     0x9fc015c0        0x8 d:/program files (x86)/microchip/xc32/v2.30/bin/bin/../../lib/gcc/pic32mx/4.8.3/../../../../pic32mx/lib\libpic32.a(vector30.o)
                0x9fc015c0                __vector_dispatch_30
                0x00000001                ASSERT (((_vector_spacing == 0x0) || (SIZEOF (.vector_30) <= (_vector_spacing << 0x5))), function at exception vector 30 too large)

.vector_31      0x9fc015e0        0x8
 *(.vector_31)
 .vector_31     0x9fc015e0        0x8 d:/program files (x86)/microchip/xc32/v2.30/bin/bin/../../lib/gcc/pic32mx/4.8.3/../../../../pic32mx/lib\libpic32.a(vector31.o)
                0x9fc015e0                __vector_dispatch_31
                0x00000001                ASSERT (((_vector_spacing == 0x0) || (SIZEOF (.vector_31) <= (_vector_spacing << 0x5))), function at exception vector 31 too large)

.vector_32      0x9fc01600       0x10
 *(.vector_32)
 .vector_32     0x9fc01600       0x10 build/default/debug/_ext/1171490990/interrupts_a.o
                0x9fc01600                __vector_dispatch_32
                0x00000001                ASSERT (((_vector_spacing == 0x0) || (SIZEOF (.vector_32) <= (_vector_spacing << 0x5))), function at exception vector 32 too large)

.vector_33      0x9fc01620        0x8
 *(.vector_33)
 .vector_33     0x9fc01620        0x8 d:/program files (x86)/microchip/xc32/v2.30/bin/bin/../../lib/gcc/pic32mx/4.8.3/../../../../pic32mx/lib\libpic32.a(vector33.o)
                0x9fc01620                __vector_dispatch_33
                0x00000001                ASSERT (((_vector_spacing == 0x0) || (SIZEOF (.vector_33) <= (_vector_spacing << 0x5))), function at exception vector 33 too large)

.vector_34      0x9fc01640        0x8
 *(.vector_34)
 .vector_34     0x9fc01640        0x8 d:/program files (x86)/microchip/xc32/v2.30/bin/bin/../../lib/gcc/pic32mx/4.8.3/../../../../pic32mx/lib\libpic32.a(vector34.o)
                0x9fc01640                __vector_dispatch_34
                0x00000001                ASSERT (((_vector_spacing == 0x0) || (SIZEOF (.vector_34) <= (_vector_spacing << 0x5))), function at exception vector 34 too large)

.vector_35      0x9fc01660        0x8
 *(.vector_35)
 .vector_35     0x9fc01660        0x8 d:/program files (x86)/microchip/xc32/v2.30/bin/bin/../../lib/gcc/pic32mx/4.8.3/../../../../pic32mx/lib\libpic32.a(vector35.o)
                0x9fc01660                __vector_dispatch_35
                0x00000001                ASSERT (((_vector_spacing == 0x0) || (SIZEOF (.vector_35) <= (_vector_spacing << 0x5))), function at exception vector 35 too large)

.vector_36      0x9fc01680        0x8
 *(.vector_36)
 .vector_36     0x9fc01680        0x8 d:/program files (x86)/microchip/xc32/v2.30/bin/bin/../../lib/gcc/pic32mx/4.8.3/../../../../pic32mx/lib\libpic32.a(vector36.o)
                0x9fc01680                __vector_dispatch_36
                0x00000001                ASSERT (((_vector_spacing == 0x0) || (SIZEOF (.vector_36) <= (_vector_spacing << 0x5))), function at exception vector 36 too large)

.vector_37      0x9fc016a0        0x8
 *(.vector_37)
 .vector_37     0x9fc016a0        0x8 d:/program files (x86)/microchip/xc32/v2.30/bin/bin/../../lib/gcc/pic32mx/4.8.3/../../../../pic32mx/lib\libpic32.a(vector37.o)
                0x9fc016a0                __vector_dispatch_37
                0x00000001                ASSERT (((_vector_spacing == 0x0) || (SIZEOF (.vector_37) <= (_vector_spacing << 0x5))), function at exception vector 37 too large)

.vector_38      0x9fc016c0        0x8
 *(.vector_38)
 .vector_38     0x9fc016c0        0x8 d:/program files (x86)/microchip/xc32/v2.30/bin/bin/../../lib/gcc/pic32mx/4.8.3/../../../../pic32mx/lib\libpic32.a(vector38.o)
                0x9fc016c0                __vector_dispatch_38
                0x00000001                ASSERT (((_vector_spacing == 0x0) || (SIZEOF (.vector_38) <= (_vector_spacing << 0x5))), function at exception vector 38 too large)

.vector_39      0x9fc016e0        0x8
 *(.vector_39)
 .vector_39     0x9fc016e0        0x8 d:/program files (x86)/microchip/xc32/v2.30/bin/bin/../../lib/gcc/pic32mx/4.8.3/../../../../pic32mx/lib\libpic32.a(vector39.o)
                0x9fc016e0                __vector_dispatch_39
                0x00000001                ASSERT (((_vector_spacing == 0x0) || (SIZEOF (.vector_39) <= (_vector_spacing << 0x5))), function at exception vector 39 too large)

.vector_40      0x9fc01700        0x8
 *(.vector_40)
 .vector_40     0x9fc01700        0x8 d:/program files (x86)/microchip/xc32/v2.30/bin/bin/../../lib/gcc/pic32mx/4.8.3/../../../../pic32mx/lib\libpic32.a(vector40.o)
                0x9fc01700                __vector_dispatch_40
                0x00000001                ASSERT (((_vector_spacing == 0x0) || (SIZEOF (.vector_40) <= (_vector_spacing << 0x5))), function at exception vector 40 too large)

.vector_41      0x9fc01720        0x8
 *(.vector_41)
 .vector_41     0x9fc01720        0x8 d:/program files (x86)/microchip/xc32/v2.30/bin/bin/../../lib/gcc/pic32mx/4.8.3/../../../../pic32mx/lib\libpic32.a(vector41.o)
                0x9fc01720                __vector_dispatch_41
                0x00000001                ASSERT (((_vector_spacing == 0x0) || (SIZEOF (.vector_41) <= (_vector_spacing << 0x5))), function at exception vector 41 too large)

.vector_42      0x9fc01740        0x8
 *(.vector_42)
 .vector_42     0x9fc01740        0x8 d:/program files (x86)/microchip/xc32/v2.30/bin/bin/../../lib/gcc/pic32mx/4.8.3/../../../../pic32mx/lib\libpic32.a(vector42.o)
                0x9fc01740                __vector_dispatch_42
                0x00000001                ASSERT (((_vector_spacing == 0x0) || (SIZEOF (.vector_42) <= (_vector_spacing << 0x5))), function at exception vector 42 too large)

.vector_43      0x9fc01760        0x8
 *(.vector_43)
 .vector_43     0x9fc01760        0x8 d:/program files (x86)/microchip/xc32/v2.30/bin/bin/../../lib/gcc/pic32mx/4.8.3/../../../../pic32mx/lib\libpic32.a(vector43.o)
                0x9fc01760                __vector_dispatch_43
                0x00000001                ASSERT (((_vector_spacing == 0x0) || (SIZEOF (.vector_43) <= (_vector_spacing << 0x5))), function at exception vector 43 too large)

.vector_44      0x9fc01780        0x8
 *(.vector_44)
 .vector_44     0x9fc01780        0x8 d:/program files (x86)/microchip/xc32/v2.30/bin/bin/../../lib/gcc/pic32mx/4.8.3/../../../../pic32mx/lib\libpic32.a(vector44.o)
                0x9fc01780                __vector_dispatch_44
                0x00000001                ASSERT (((_vector_spacing == 0x0) || (SIZEOF (.vector_44) <= (_vector_spacing << 0x5))), function at exception vector 44 too large)

.vector_45      0x9fc017a0        0x8
 *(.vector_45)
 .vector_45     0x9fc017a0        0x8 d:/program files (x86)/microchip/xc32/v2.30/bin/bin/../../lib/gcc/pic32mx/4.8.3/../../../../pic32mx/lib\libpic32.a(vector45.o)
                0x9fc017a0                __vector_dispatch_45
                0x00000001                ASSERT (((_vector_spacing == 0x0) || (SIZEOF (.vector_45) <= (_vector_spacing << 0x5))), function at exception vector 45 too large)

.vector_46      0x9fc017c0        0x0
 *(.vector_46)
                0x00000001                ASSERT (((_vector_spacing == 0x0) || (SIZEOF (.vector_46) <= (_vector_spacing << 0x5))), function at exception vector 46 too large)

.vector_47      0x9fc017e0        0x0
 *(.vector_47)
                0x00000001                ASSERT (((_vector_spacing == 0x0) || (SIZEOF (.vector_47) <= (_vector_spacing << 0x5))), function at exception vector 47 too large)

.vector_48      0x9fc01800        0x0
 *(.vector_48)
                0x00000001                ASSERT (((_vector_spacing == 0x0) || (SIZEOF (.vector_48) <= (_vector_spacing << 0x5))), function at exception vector 48 too large)

.vector_49      0x9fc01820        0x0
 *(.vector_49)
                0x00000001                ASSERT (((_vector_spacing == 0x0) || (SIZEOF (.vector_49) <= (_vector_spacing << 0x5))), function at exception vector 49 too large)

.vector_50      0x9fc01840        0x0
 *(.vector_50)
                0x00000001                ASSERT (((_vector_spacing == 0x0) || (SIZEOF (.vector_50) <= (_vector_spacing << 0x5))), function at exception vector 50 too large)

.vector_51      0x9fc01860        0x0
 *(.vector_51)
                0x00000001                ASSERT (((_vector_spacing == 0x0) || (SIZEOF (.vector_51) <= (_vector_spacing << 0x5))), function at exception vector 51 too large)

.vector_52      0x9fc01880        0x0
 *(.vector_52)
                0x00000001                ASSERT (((_vector_spacing == 0x0) || (SIZEOF (.vector_52) <= (_vector_spacing << 0x5))), function at exception vector 52 too large)

.vector_53      0x9fc018a0        0x0
 *(.vector_53)
                0x00000001                ASSERT (((_vector_spacing == 0x0) || (SIZEOF (.vector_53) <= (_vector_spacing << 0x5))), function at exception vector 53 too large)

.vector_54      0x9fc018c0        0x0
 *(.vector_54)
                0x00000001                ASSERT (((_vector_spacing == 0x0) || (SIZEOF (.vector_54) <= (_vector_spacing << 0x5))), function at exception vector 54 too large)

.vector_55      0x9fc018e0        0x0
 *(.vector_55)
                0x00000001                ASSERT (((_vector_spacing == 0x0) || (SIZEOF (.vector_55) <= (_vector_spacing << 0x5))), function at exception vector 55 too large)

.vector_56      0x9fc01900        0x0
 *(.vector_56)
                0x00000001                ASSERT (((_vector_spacing == 0x0) || (SIZEOF (.vector_56) <= (_vector_spacing << 0x5))), function at exception vector 56 too large)

.vector_57      0x9fc01920        0x0
 *(.vector_57)
                0x00000001                ASSERT (((_vector_spacing == 0x0) || (SIZEOF (.vector_57) <= (_vector_spacing << 0x5))), function at exception vector 57 too large)

.vector_58      0x9fc01940        0x0
 *(.vector_58)
                0x00000001                ASSERT (((_vector_spacing == 0x0) || (SIZEOF (.vector_58) <= (_vector_spacing << 0x5))), function at exception vector 58 too large)

.vector_59      0x9fc01960        0x0
 *(.vector_59)
                0x00000001                ASSERT (((_vector_spacing == 0x0) || (SIZEOF (.vector_59) <= (_vector_spacing << 0x5))), function at exception vector 59 too large)

.vector_60      0x9fc01980        0x0
 *(.vector_60)
                0x00000001                ASSERT (((_vector_spacing == 0x0) || (SIZEOF (.vector_60) <= (_vector_spacing << 0x5))), function at exception vector 60 too large)

.vector_61      0x9fc019a0        0x0
 *(.vector_61)
                0x00000001                ASSERT (((_vector_spacing == 0x0) || (SIZEOF (.vector_61) <= (_vector_spacing << 0x5))), function at exception vector 61 too large)

.vector_62      0x9fc019c0        0x0
 *(.vector_62)
                0x00000001                ASSERT (((_vector_spacing == 0x0) || (SIZEOF (.vector_62) <= (_vector_spacing << 0x5))), function at exception vector 62 too large)

.vector_63      0x9fc019e0        0x0
 *(.vector_63)
                0x00000001                ASSERT (((_vector_spacing == 0x0) || (SIZEOF (.vector_63) <= (_vector_spacing << 0x5))), function at exception vector 63 too large)

.startup
 *(.startup)

.text           0x9d000000        0x0
 *(.stub .gnu.linkonce.t.*)
 *(.text.*personality*)
 *(.mips16.fn.*)
 *(.mips16.call.*)
 *(.gnu.warning)
                0x9d000000                . = ALIGN (0x4)

.init           0x9d000000        0x0
 *crti.o(.init)
 *crtbegin.o(.init)
 *(EXCLUDE_FILE(*crtn.o *crtend?.o *crtend.o) .init)
 *crtend.o(.init)
 *crtn.o(.init)
                0x9d000000                . = ALIGN (0x4)

.fini           0x9d000000        0x0
 *(.fini)
                0x9d000000                . = ALIGN (0x4)

.preinit_array  0x9d000000        0x0
                0x9d000000                PROVIDE (__preinit_array_start, .)
 *(.preinit_array)
                0x9d000000                PROVIDE (__preinit_array_end, .)
                0x9d000000                . = ALIGN (0x4)

.init_array     0x9d000000        0x0
                0x9d000000                PROVIDE (__init_array_start, .)
 *(SORT(.init_array.*))
 *(.init_array)
                0x9d000000                PROVIDE (__init_array_end, .)
                0x9d000000                . = ALIGN (0x4)

.fini_array     0x9d000000        0x0
                0x9d000000                PROVIDE (__fini_array_start, .)
 *(SORT(.fini_array.*))
 *(.fini_array)
                0x9d000000                PROVIDE (__fini_array_end, .)
                0x9d000000                . = ALIGN (0x4)

.ctors          0x9d000000        0x0
 *crtbegin.o(.ctors)
 *crtbegin?.o(.ctors)
 *(EXCLUDE_FILE(*crtend?.o *crtend.o) .ctors)
 *(SORT(.ctors.*))
 *(.ctors)
                0x9d000000                . = ALIGN (0x4)

.dtors          0x9d000000        0x0
 *crtbegin.o(.dtors)
 *crtbegin?.o(.dtors)
 *(EXCLUDE_FILE(*crtend?.o *crtend.o) .dtors)
 *(SORT(.dtors.*))
 *(.dtors)
                0x9d000000                . = ALIGN (0x4)

.rodata         0x9d000000        0x0
 *(.gnu.linkonce.r.*)
 *(.rodata1)
                0x9d000000                . = ALIGN (0x4)

.sdata2         0x9fc00490        0x0
 *(.sdata2 .sdata2.* .gnu.linkonce.s2.*)
                0x9fc00490                . = ALIGN (0x4)

.sbss2          0x9fc00490        0x0
 *(.sbss2 .sbss2.* .gnu.linkonce.sb2.*)
                0x9fc00490                . = ALIGN (0x4)

.eh_frame_hdr
 *(.eh_frame_hdr)
                0x9fc00490                . = ALIGN (0x4)

.eh_frame
 *(.eh_frame)
                0x9fc00490                . = ALIGN (0x4)

.gcc_except_table
 *(.gcc_except_table .gcc_except_table.*)
                0x9fc00490                . = ALIGN (0x4)

.dbg_data       0xa0000200        0x0
                0xa0000200                . = (. + DEFINED (_DEBUGGER)?0x200:0x0)

.jcr            0xa0000200        0x0
 *(.jcr)
                0xa0000200                . = ALIGN (0x4)

.eh_frame
 *(.eh_frame)
                0xa0000200                . = ALIGN (0x4)

.gcc_except_table
 *(.gcc_except_table .gcc_except_table.*)
                0xa0000200                . = ALIGN (0x4)

.persist        0xa0000200        0x0
                0xa0000200                _persist_begin = .
 *(.persist .persist.*)
 *(.pbss .pbss.*)
                0xa0000200                . = ALIGN (0x4)
                0xa0000200                _persist_end = .

.data           0xa0000200        0x0
 *(.gnu.linkonce.d.*)
 *(.data1)
                0xa0000200                . = ALIGN (0x4)
                0xa0000200                . = .
                0xa00081f0                _gp = (ALIGN (0x10) + 0x7ff0)

.got            0xa0000200        0x0
 *(.got.plt)
 *(.got)
                0xa0000200                . = ALIGN (0x4)

.sdata          0xa0000200        0xc
                0xa0000200                _sdata_begin = .
 *(.sdata .sdata.* .gnu.linkonce.s.*)
 .sdata         0xa0000200        0x4 build/default/debug/_ext/951553248/port.o
                0xa0000200                uxInterruptNesting
 .sdata         0xa0000204        0x8 build/default/debug/_ext/1360937237/contacts.o
                0xa0000204                portTable
                0xa000020c                . = ALIGN (0x4)
                0xa000020c                _sdata_end = .

.lit8
 *(.lit8)

.lit4
 *(.lit4)
                0xa000020c                . = ALIGN (0x4)
                0xa000020c                _data_end = .
                0xa000020c                _bss_begin = .

.sbss           0xa000020c       0x94
                0xa000020c                _sbss_begin = .
 *(.dynsbss)
 *(.sbss .sbss.* .gnu.linkonce.sb.*)
 .sbss          0xa000020c        0xc build/default/debug/_ext/1171490990/exceptions.o
 .sbss          0xa0000218        0x8 build/default/debug/_ext/1665200909/heap_1.o
 .sbss          0xa0000220        0x4 build/default/debug/_ext/951553248/port.o
                0xa0000220                uxSavedTaskStackPointer
 .sbss          0xa0000224       0x34 build/default/debug/_ext/404212886/FreeRTOS_tasks.o
                0xa0000224                pxCurrentTCB
                0xa0000228                uxDeletedTasksWaitingCleanUp
                0xa000022c                uxCurrentNumberOfTasks
                0xa0000230                xTickCount
                0xa0000234                uxTopReadyPriority
                0xa0000238                xSchedulerRunning
                0xa000023c                uxPendedTicks
                0xa0000240                xYieldPending
                0xa0000244                xNumOfOverflows
                0xa0000248                uxTaskNumber
                0xa000024c                xNextTaskUnblockTime
                0xa0000250                xIdleTaskHandle
                0xa0000254                uxSchedulerSuspended
 .sbss          0xa0000258       0x14 build/default/debug/_ext/404212886/timers.o
 .sbss          0xa000026c        0x4 build/default/debug/_ext/659830161/MDB_CG.o
 .sbss          0xa0000270        0x1 build/default/debug/_ext/1360937237/leds.o
 *fill*         0xa0000271        0x3 
 .sbss          0xa0000274        0x8 build/default/debug/_ext/1360937237/mainboard2.o
 *(.scommon)
 .scommon       0xa000027c        0x8 build/default/debug/_ext/60163342/plib_adc.o
                0xa000027c                ADC_CallbackObj
 .scommon       0xa0000284       0x10 build/default/debug/_ext/1171490990/initialization.o
                0xa0000284                hTOCumul
                0xa0000288                sysObj
                0xa000028c                hTimerDisplaySelection
                0xa0000290                hTimerOverPay
 .scommon       0xa0000294        0x0 build/default/debug/_ext/1171490990/interrupts.o
 .scommon       0xa0000294        0x0 build/default/debug/_ext/1171490990/exceptions.o
 .scommon       0xa0000294        0x4 build/default/debug/_ext/1171490990/tasks.o
                0xa0000294                xMAINBOARD2_Tasks
 .scommon       0xa0000298        0x0 build/default/debug/_ext/1360937237/audits.o
 .scommon       0xa0000298        0x0 build/default/debug/_ext/1360937237/parameters.o
 .scommon       0xa0000298        0x0 build/default/debug/_ext/1360937237/dataCommun.o
 .scommon       0xa0000298        0x8 build/default/debug/_ext/404212886/FreeRTOS_tasks.o
                0xa0000298                pxDelayedTaskList
                0xa000029c                pxOverflowDelayedTaskList
 .scommon       0xa00002a0        0x0 build/default/debug/_ext/659830161/MDB.o
 .scommon       0xa00002a0        0x0 build/default/debug/_ext/659830161/MDB_CG.o
 .scommon       0xa00002a0        0x0 build/default/debug/_ext/659830161/MDB_BV.o
 .scommon       0xa00002a0        0x0 build/default/debug/_ext/1360937237/hd44780.o
 .scommon       0xa00002a0        0x0 build/default/debug/_ext/1360937237/leds.o
 .scommon       0xa00002a0        0x0 build/default/debug/_ext/1360937237/DS18B20.o
 .scommon       0xa00002a0        0x0 build/default/debug/_ext/1360937237/contacts.o
 .scommon       0xa00002a0        0x0 build/default/debug/_ext/1360937237/main.o
 .scommon       0xa00002a0        0x0 build/default/debug/_ext/1360937237/mainboard2.o
                0xa00002a0                _sbss_end = .
                0xa00002a0                . = ALIGN (0x4)

.bss            0xa00002a0      0x2b8
 *(.dynbss)
 *(COMMON)
 COMMON         0xa00002a0        0xc build/default/debug/_ext/1171490990/initialization.o
                0xa00002a0                pcCom
 COMMON         0xa00002ac       0x50 build/default/debug/_ext/404212886/queue.o
                0xa00002ac                xQueueRegistry
 COMMON         0xa00002fc       0xc8 build/default/debug/_ext/404212886/FreeRTOS_tasks.o
                0xa00002fc                pxReadyTasksLists
                0xa0000360                xPendingReadyList
                0xa0000374                xSuspendedTaskList
                0xa0000388                xDelayedTaskList1
                0xa000039c                xTasksWaitingTermination
                0xa00003b0                xDelayedTaskList2
 COMMON         0xa00003c4       0x18 build/default/debug/_ext/659830161/MDB.o
                0xa00003c4                mdb
 COMMON         0xa00003dc       0x98 build/default/debug/_ext/659830161/MDB_CG.o
                0xa00003dc                changeGiver
 COMMON         0xa0000474       0x6a build/default/debug/_ext/659830161/MDB_BV.o
                0xa0000474                billValidator
 *fill*         0xa00004de        0x2 
 COMMON         0xa00004e0       0x10 build/default/debug/_ext/1360937237/leds.o
                0xa00004e0                leds
 COMMON         0xa00004f0       0x1c build/default/debug/_ext/1360937237/DS18B20.o
                0xa00004f0                ds18b20
 COMMON         0xa000050c       0x1c build/default/debug/_ext/1360937237/contacts.o
                0xa000050c                switchs
 COMMON         0xa0000528       0x18 build/default/debug/_ext/1360937237/moteurs.o
                0xa0000528                motors
 COMMON         0xa0000540       0x18 build/default/debug/_ext/1360937237/trap_security.o
                0xa0000540                adcs
                0xa0000558                . = ALIGN ((. != 0x0)?0x4:0x1)
                0xa0000558                . = ALIGN (0x4)
                0xa0000558                _end = .
                0xa0000558                _bss_end = .
                0x00020000                _bmxdudba_address = 0x20000
                0x00020000                _bmxdupba_address = 0x20000

/DISCARD/
 *(.pdr)
 *(.rel.dyn)
 *(.note.GNU-stack)
 *(.note.GNU-stack)
 *(.gnu_debuglink)
 *(.gnu.lto_*)
 *(.discard)

.gptab.sdata
 *(.gptab.data)
 *(.gptab.sdata)

.gptab.sbss
 *(.gptab.bss)
 *(.gptab.sbss)

.mdebug.abi32   0xa0000558        0x0
 *(.mdebug.abi32)
 .mdebug.abi32  0xa0000558        0x0 d:/program files (x86)/microchip/xc32/v2.30/bin/bin/../../lib/gcc/pic32mx/4.8.3/../../../../pic32mx/lib\software-debug-break.o
 .mdebug.abi32  0xa0000558        0x0 build/default/debug/_ext/897820976/drv_at24.o
 .mdebug.abi32  0xa0000558        0x0 build/default/debug/_ext/60163342/plib_adc.o
 .mdebug.abi32  0xa0000558        0x0 build/default/debug/_ext/60165520/plib_clk.o
 .mdebug.abi32  0xa0000558        0x0 build/default/debug/_ext/1865200349/plib_evic.o
 .mdebug.abi32  0xa0000558        0x0 build/default/debug/_ext/1865254177/plib_gpio.o
 .mdebug.abi32  0xa0000558        0x0 build/default/debug/_ext/60169480/plib_i2c1.o
 .mdebug.abi32  0xa0000558        0x0 build/default/debug/_ext/60176403/plib_nvm.o
 .mdebug.abi32  0xa0000558        0x0 build/default/debug/_ext/1865569570/plib_rcon.o
 .mdebug.abi32  0xa0000558        0x0 build/default/debug/_ext/1865657120/plib_uart3.o
 .mdebug.abi32  0xa0000558        0x0 build/default/debug/_ext/1865657120/plib_uart1.o
 .mdebug.abi32  0xa0000558        0x0 build/default/debug/_ext/14461671/sys_dma.o
 .mdebug.abi32  0xa0000558        0x0 build/default/debug/_ext/1881668453/sys_int.o
 .mdebug.abi32  0xa0000558        0x0 build/default/debug/_ext/1171490990/initialization.o
 .mdebug.abi32  0xa0000558        0x0 build/default/debug/_ext/1171490990/interrupts.o
 .mdebug.abi32  0xa0000558        0x0 build/default/debug/_ext/1171490990/exceptions.o
 .mdebug.abi32  0xa0000558        0x0 build/default/debug/_ext/1171490990/freertos_hooks.o
 .mdebug.abi32  0xa0000558        0x0 build/default/debug/_ext/1171490990/tasks.o
 .mdebug.abi32  0xa0000558        0x0 build/default/debug/_ext/1360937237/audits.o
 .mdebug.abi32  0xa0000558        0x0 build/default/debug/_ext/1360937237/parameters.o
 .mdebug.abi32  0xa0000558        0x0 build/default/debug/_ext/1360937237/dataCommun.o
 .mdebug.abi32  0xa0000558        0x0 build/default/debug/_ext/1665200909/heap_1.o
 .mdebug.abi32  0xa0000558        0x0 build/default/debug/_ext/951553248/port.o
 .mdebug.abi32  0xa0000558        0x0 build/default/debug/_ext/404212886/croutine.o
 .mdebug.abi32  0xa0000558        0x0 build/default/debug/_ext/404212886/list.o
 .mdebug.abi32  0xa0000558        0x0 build/default/debug/_ext/404212886/queue.o
 .mdebug.abi32  0xa0000558        0x0 build/default/debug/_ext/404212886/FreeRTOS_tasks.o
 .mdebug.abi32  0xa0000558        0x0 build/default/debug/_ext/404212886/timers.o
 .mdebug.abi32  0xa0000558        0x0 build/default/debug/_ext/404212886/event_groups.o
 .mdebug.abi32  0xa0000558        0x0 build/default/debug/_ext/404212886/stream_buffer.o
 .mdebug.abi32  0xa0000558        0x0 build/default/debug/_ext/659830161/MDB.o
 .mdebug.abi32  0xa0000558        0x0 build/default/debug/_ext/659830161/MDB_CG.o
 .mdebug.abi32  0xa0000558        0x0 build/default/debug/_ext/659830161/MDB_BV.o
 .mdebug.abi32  0xa0000558        0x0 build/default/debug/_ext/1529399856/osal_freertos.o
 .mdebug.abi32  0xa0000558        0x0 build/default/debug/_ext/1360937237/hd44780.o
 .mdebug.abi32  0xa0000558        0x0 build/default/debug/_ext/1360937237/delay_us.o
 .mdebug.abi32  0xa0000558        0x0 build/default/debug/_ext/1360937237/leds.o
 .mdebug.abi32  0xa0000558        0x0 build/default/debug/_ext/1360937237/DS18B20.o
 .mdebug.abi32  0xa0000558        0x0 build/default/debug/_ext/1360937237/contacts.o
 .mdebug.abi32  0xa0000558        0x0 build/default/debug/_ext/1360937237/moteurs.o
 .mdebug.abi32  0xa0000558        0x0 build/default/debug/_ext/1360937237/trap_security.o
 .mdebug.abi32  0xa0000558        0x0 build/default/debug/_ext/1360937237/main.o
 .mdebug.abi32  0xa0000558        0x0 build/default/debug/_ext/1360937237/mainboard2.o
 .mdebug.abi32  0xa0000558        0x0 d:/program files (x86)/microchip/xc32/v2.30/bin/bin/../../lib/gcc/pic32mx/4.8.3\libgcc.a(floatunsisf.o)
 .mdebug.abi32  0xa0000558        0x0 d:/program files (x86)/microchip/xc32/v2.30/bin/bin/../../lib/gcc/pic32mx/4.8.3/../../../../pic32mx/lib\libpic32.a(default-bootstrap-exception-handler.o)
 .mdebug.abi32  0xa0000558        0x0 d:/program files (x86)/microchip/xc32/v2.30/bin/bin/../../lib/gcc/pic32mx/4.8.3/../../../../pic32mx/lib\libpic32.a(default-on-reset.o)
 .mdebug.abi32  0xa0000558        0x0 d:/program files (x86)/microchip/xc32/v2.30/bin/bin/../../lib/gcc/pic32mx/4.8.3/../../../../pic32mx/lib\libpic32.a(default-on-bootstrap.o)
 .mdebug.abi32  0xa0000558        0x0 d:/program files (x86)/microchip/xc32/v2.30/bin/bin/../../lib/gcc/pic32mx/4.8.3/../../../../pic32mx/lib\libpic32.a(defaultinterrupt.o)
 .mdebug.abi32  0xa0000558        0x0 d:/program files (x86)/microchip/xc32/v2.30/bin/bin/../../lib/gcc/pic32mx/4.8.3/../../../../pic32mx/lib\libc.a(memmove.o)
 .mdebug.abi32  0xa0000558        0x0 d:/program files (x86)/microchip/xc32/v2.30/bin/bin/../../lib/gcc/pic32mx/4.8.3/../../../../pic32mx/lib\libc.a(vprintf.o)
 .mdebug.abi32  0xa0000558        0x0 d:/program files (x86)/microchip/xc32/v2.30/bin/bin/../../lib/gcc/pic32mx/4.8.3/../../../../pic32mx/lib\libc.a(_iob.o)
 .mdebug.abi32  0xa0000558        0x0 d:/program files (x86)/microchip/xc32/v2.30/bin/bin/../../lib/gcc/pic32mx/4.8.3/../../../../pic32mx/lib\libc.a(doprnt.o)
 .mdebug.abi32  0xa0000558        0x0 d:/program files (x86)/microchip/xc32/v2.30/bin/bin/../../lib/gcc/pic32mx/4.8.3/../../../../pic32mx/lib\libc.a(_fputc_simple.o)
 .mdebug.abi32  0xa0000558        0x0 d:/program files (x86)/microchip/xc32/v2.30/bin/bin/../../lib/gcc/pic32mx/4.8.3/../../../../pic32mx/lib\libc.a(ctype.o)
 .mdebug.abi32  0xa0000558        0x0 d:/program files (x86)/microchip/xc32/v2.30/bin/bin/../../lib/gcc/pic32mx/4.8.3/../../../../pic32mx/lib\libc.a(ldpowers.o)
 .mdebug.abi32  0xa0000558        0x0 d:/program files (x86)/microchip/xc32/v2.30/bin/bin/../../lib/gcc/pic32mx/4.8.3/../../../../pic32mx/lib\libc.a(_flsbuf_simple.o)
 .mdebug.abi32  0xa0000558        0x0 d:/program files (x86)/microchip/xc32/v2.30/bin/bin/../../lib/gcc/pic32mx/4.8.3/../../../../pic32mx/lib\libe.a(_fixunsdfdi.o)
 .mdebug.abi32  0xa0000558        0x0 d:/program files (x86)/microchip/xc32/v2.30/bin/bin/../../lib/gcc/pic32mx/4.8.3/../../../../pic32mx/lib\libe.a(_orderdf2.o)
 .mdebug.abi32  0xa0000558        0x0 d:/program files (x86)/microchip/xc32/v2.30/bin/bin/../../lib/gcc/pic32mx/4.8.3/../../../../pic32mx/lib\libe.a(_fixdfdi.o)
 .mdebug.abi32  0xa0000558        0x0 d:/program files (x86)/microchip/xc32/v2.30/bin/bin/../../lib/gcc/pic32mx/4.8.3\libgcc.a(_floatundidf.o)
 .mdebug.abi32  0xa0000558        0x0 d:/program files (x86)/microchip/xc32/v2.30/bin/bin/../../lib/gcc/pic32mx/4.8.3\libgcc.a(_udivdi3.o)
 .mdebug.abi32  0xa0000558        0x0 d:/program files (x86)/microchip/xc32/v2.30/bin/bin/../../lib/gcc/pic32mx/4.8.3\libgcc.a(_umoddi3.o)
 .mdebug.abi32  0xa0000558        0x0 d:/program files (x86)/microchip/xc32/v2.30/bin/bin/../../lib/gcc/pic32mx/4.8.3\libgcc.a(floatunsidf.o)
 .mdebug.abi32  0xa0000558        0x0 d:/program files (x86)/microchip/xc32/v2.30/bin/bin/../../lib/gcc/pic32mx/4.8.3/../../../../pic32mx/lib\libpic32.a(write.o)

.mdebug.abiN32
 *(.mdebug.abiN32)

.mdebug.abi64
 *(.mdebug.abi64)

.mdebug.abiO64
 *(.mdebug.abiO64)

.mdebug.eabi32
 *(.mdebug.eabi32)

.mdebug.eabi64
 *(.mdebug.eabi64)

.gcc_compiled_long32
 *(.gcc_compiled_long32)

.gcc_compiled_long64
 *(.gcc_compiled_long64)

.stab
 *(.stab)

.stabstr
 *(.stabstr)

.stab.excl
 *(.stab.excl)

.stab.exclstr
 *(.stab.exclstr)

.stab.index
 *(.stab.index)

.stab.indexstr
 *(.stab.indexstr)

.comment        0x00000000      0x1e1
 *(.comment)
 .comment       0x00000000       0x3c d:/program files (x86)/microchip/xc32/v2.30/bin/bin/../../lib/gcc/pic32mx/4.8.3/../../../../pic32mx/lib\software-debug-break.o
                                 0x3d (size before relaxing)
 .comment       0x00000000       0x3d build/default/debug/_ext/897820976/drv_at24.o
 .comment       0x00000000       0x3d build/default/debug/_ext/60163342/plib_adc.o
 .comment       0x00000000       0x3d build/default/debug/_ext/60165520/plib_clk.o
 .comment       0x00000000       0x3d build/default/debug/_ext/1865200349/plib_evic.o
 .comment       0x00000000       0x3d build/default/debug/_ext/1865254177/plib_gpio.o
 .comment       0x00000000       0x3d build/default/debug/_ext/60169480/plib_i2c1.o
 .comment       0x00000000       0x3d build/default/debug/_ext/60176403/plib_nvm.o
 .comment       0x00000000       0x3d build/default/debug/_ext/1865569570/plib_rcon.o
 .comment       0x00000000       0x3d build/default/debug/_ext/1865657120/plib_uart3.o
 .comment       0x00000000       0x3d build/default/debug/_ext/1865657120/plib_uart1.o
 .comment       0x00000000       0x3d build/default/debug/_ext/14461671/sys_dma.o
 .comment       0x00000000       0x3d build/default/debug/_ext/1881668453/sys_int.o
 .comment       0x00000000       0x3d build/default/debug/_ext/1171490990/initialization.o
 .comment       0x00000000       0x3d build/default/debug/_ext/1171490990/interrupts.o
 .comment       0x00000000       0x3d build/default/debug/_ext/1171490990/exceptions.o
 .comment       0x00000000       0x3d build/default/debug/_ext/1171490990/freertos_hooks.o
 .comment       0x00000000       0x3d build/default/debug/_ext/1171490990/tasks.o
 .comment       0x00000000       0x3d build/default/debug/_ext/1360937237/audits.o
 .comment       0x00000000       0x3d build/default/debug/_ext/1360937237/parameters.o
 .comment       0x00000000       0x3d build/default/debug/_ext/1360937237/dataCommun.o
 .comment       0x00000000       0x3d build/default/debug/_ext/1665200909/heap_1.o
 .comment       0x00000000       0x3d build/default/debug/_ext/951553248/port.o
 .comment       0x00000000       0x3d build/default/debug/_ext/404212886/croutine.o
 .comment       0x00000000       0x3d build/default/debug/_ext/404212886/list.o
 .comment       0x00000000       0x3d build/default/debug/_ext/404212886/queue.o
 .comment       0x00000000       0x3d build/default/debug/_ext/404212886/FreeRTOS_tasks.o
 .comment       0x00000000       0x3d build/default/debug/_ext/404212886/timers.o
 .comment       0x00000000       0x3d build/default/debug/_ext/404212886/event_groups.o
 .comment       0x00000000       0x3d build/default/debug/_ext/404212886/stream_buffer.o
 .comment       0x00000000       0x3d build/default/debug/_ext/659830161/MDB.o
 .comment       0x00000000       0x3d build/default/debug/_ext/659830161/MDB_CG.o
 .comment       0x00000000       0x3d build/default/debug/_ext/659830161/MDB_BV.o
 .comment       0x00000000       0x3d build/default/debug/_ext/1529399856/osal_freertos.o
 .comment       0x00000000       0x3d build/default/debug/_ext/1360937237/hd44780.o
 .comment       0x00000000       0x3d build/default/debug/_ext/1360937237/delay_us.o
 .comment       0x00000000       0x3d build/default/debug/_ext/1360937237/leds.o
 .comment       0x00000000       0x3d build/default/debug/_ext/1360937237/DS18B20.o
 .comment       0x00000000       0x3d build/default/debug/_ext/1360937237/contacts.o
 .comment       0x00000000       0x3d build/default/debug/_ext/1360937237/moteurs.o
 .comment       0x00000000       0x3d build/default/debug/_ext/1360937237/trap_security.o
 .comment       0x00000000       0x3d build/default/debug/_ext/1360937237/main.o
 .comment       0x00000000       0x3d build/default/debug/_ext/1360937237/mainboard2.o
 .comment       0x00000000       0x3d d:/program files (x86)/microchip/xc32/v2.30/bin/bin/../../lib/gcc/pic32mx/4.8.3\libgcc.a(floatunsisf.o)
 .comment       0x0000003c       0x18 d:/program files (x86)/microchip/xc32/v2.30/bin/bin/../../lib/gcc/pic32mx/4.8.3/../../../../pic32mx/lib\libpic32.a(memset.o)
                                 0x19 (size before relaxing)
 .comment       0x00000000       0x3d d:/program files (x86)/microchip/xc32/v2.30/bin/bin/../../lib/gcc/pic32mx/4.8.3/../../../../pic32mx/lib\libpic32.a(default-bootstrap-exception-handler.o)
 .comment       0x00000000       0x3d d:/program files (x86)/microchip/xc32/v2.30/bin/bin/../../lib/gcc/pic32mx/4.8.3/../../../../pic32mx/lib\libpic32.a(default-on-reset.o)
 .comment       0x00000000       0x3d d:/program files (x86)/microchip/xc32/v2.30/bin/bin/../../lib/gcc/pic32mx/4.8.3/../../../../pic32mx/lib\libpic32.a(default-on-bootstrap.o)
 .comment       0x00000000       0x3d d:/program files (x86)/microchip/xc32/v2.30/bin/bin/../../lib/gcc/pic32mx/4.8.3/../../../../pic32mx/lib\libpic32.a(defaultinterrupt.o)
 .comment       0x00000000       0x3d d:/program files (x86)/microchip/xc32/v2.30/bin/bin/../../lib/gcc/pic32mx/4.8.3/../../../../pic32mx/lib\libc.a(memmove.o)
 .comment       0x00000000       0x3d d:/program files (x86)/microchip/xc32/v2.30/bin/bin/../../lib/gcc/pic32mx/4.8.3/../../../../pic32mx/lib\libc.a(vprintf.o)
 .comment       0x00000000       0x3d d:/program files (x86)/microchip/xc32/v2.30/bin/bin/../../lib/gcc/pic32mx/4.8.3/../../../../pic32mx/lib\libc.a(_iob.o)
 .comment       0x00000000       0x3d d:/program files (x86)/microchip/xc32/v2.30/bin/bin/../../lib/gcc/pic32mx/4.8.3/../../../../pic32mx/lib\libc.a(doprnt.o)
 .comment       0x00000000       0x3d d:/program files (x86)/microchip/xc32/v2.30/bin/bin/../../lib/gcc/pic32mx/4.8.3/../../../../pic32mx/lib\libc.a(_fputc_simple.o)
 .comment       0x00000054       0x4e d:/program files (x86)/microchip/xc32/v2.30/bin/bin/../../lib/gcc/pic32mx/4.8.3/../../../../pic32mx/lib\libc.a(ctype.o)
                                 0x8b (size before relaxing)
 .comment       0x00000000       0x3d d:/program files (x86)/microchip/xc32/v2.30/bin/bin/../../lib/gcc/pic32mx/4.8.3/../../../../pic32mx/lib\libc.a(ldpowers.o)
 .comment       0x00000000       0x3d d:/program files (x86)/microchip/xc32/v2.30/bin/bin/../../lib/gcc/pic32mx/4.8.3/../../../../pic32mx/lib\libc.a(_flsbuf_simple.o)
 .comment       0x000000a2       0x9f d:/program files (x86)/microchip/xc32/v2.30/bin/bin/../../lib/gcc/pic32mx/4.8.3/../../../../pic32mx/lib\libe.a(_fixunsdfdi.o)
                                 0xdc (size before relaxing)
 .comment       0x00000141       0x50 d:/program files (x86)/microchip/xc32/v2.30/bin/bin/../../lib/gcc/pic32mx/4.8.3/../../../../pic32mx/lib\libe.a(_orderdf2.o)
                                 0xdb (size before relaxing)
 .comment       0x00000191       0x50 d:/program files (x86)/microchip/xc32/v2.30/bin/bin/../../lib/gcc/pic32mx/4.8.3/../../../../pic32mx/lib\libe.a(_fixdfdi.o)
                                 0xdb (size before relaxing)
 .comment       0x00000000       0x3d d:/program files (x86)/microchip/xc32/v2.30/bin/bin/../../lib/gcc/pic32mx/4.8.3\libgcc.a(_floatundidf.o)
 .comment       0x00000000       0x3d d:/program files (x86)/microchip/xc32/v2.30/bin/bin/../../lib/gcc/pic32mx/4.8.3\libgcc.a(_udivdi3.o)
 .comment       0x00000000       0x3d d:/program files (x86)/microchip/xc32/v2.30/bin/bin/../../lib/gcc/pic32mx/4.8.3\libgcc.a(_umoddi3.o)
 .comment       0x00000000       0x3d d:/program files (x86)/microchip/xc32/v2.30/bin/bin/../../lib/gcc/pic32mx/4.8.3\libgcc.a(floatunsidf.o)
 .comment       0x00000000       0x3d d:/program files (x86)/microchip/xc32/v2.30/bin/bin/../../lib/gcc/pic32mx/4.8.3/../../../../pic32mx/lib\libpic32.a(write.o)

.debug
 *(.debug)

.line
 *(.line)

.debug_srcinfo
 *(.debug_srcinfo)

.debug_sfnames
 *(.debug_sfnames)

.debug_aranges  0x00000000     0x1458
 *(.debug_aranges)
 .debug_aranges
                0x00000000       0x20 d:/program files (x86)/microchip/xc32/v2.30/bin/bin/../../lib/gcc/pic32mx/4.8.3/../../../../pic32mx/lib\software-debug-break.o
 .debug_aranges
                0x00000020       0x88 build/default/debug/_ext/897820976/drv_at24.o
 .debug_aranges
                0x000000a8       0x70 build/default/debug/_ext/60163342/plib_adc.o
 .debug_aranges
                0x00000118       0x20 build/default/debug/_ext/60165520/plib_clk.o
 .debug_aranges
                0x00000138       0x50 build/default/debug/_ext/1865200349/plib_evic.o
 .debug_aranges
                0x00000188       0x60 build/default/debug/_ext/1865254177/plib_gpio.o
 .debug_aranges
                0x000001e8       0x78 build/default/debug/_ext/60169480/plib_i2c1.o
 .debug_aranges
                0x00000260       0x50 build/default/debug/_ext/60176403/plib_nvm.o
 .debug_aranges
                0x000002b0       0x30 build/default/debug/_ext/1865569570/plib_rcon.o
 .debug_aranges
                0x000002e0       0x70 build/default/debug/_ext/1865657120/plib_uart3.o
 .debug_aranges
                0x00000350       0x70 build/default/debug/_ext/1865657120/plib_uart1.o
 .debug_aranges
                0x000003c0       0x30 build/default/debug/_ext/14461671/sys_dma.o
 .debug_aranges
                0x000003f0       0x40 build/default/debug/_ext/1881668453/sys_int.o
 .debug_aranges
                0x00000430       0x20 build/default/debug/_ext/1171490990/initialization.o
 .debug_aranges
                0x00000450       0x28 build/default/debug/_ext/1171490990/interrupts.o
 .debug_aranges
                0x00000478       0x38 build/default/debug/_ext/1171490990/interrupts_a.o
 .debug_aranges
                0x000004b0       0x20 build/default/debug/_ext/1171490990/exceptions.o
 .debug_aranges
                0x000004d0       0x40 build/default/debug/_ext/1171490990/freertos_hooks.o
 .debug_aranges
                0x00000510       0x28 build/default/debug/_ext/1171490990/tasks.o
 .debug_aranges
                0x00000538       0x50 build/default/debug/_ext/1360937237/audits.o
 .debug_aranges
                0x00000588       0x70 build/default/debug/_ext/1360937237/parameters.o
 .debug_aranges
                0x000005f8       0x30 build/default/debug/_ext/1360937237/dataCommun.o
 .debug_aranges
                0x00000628       0x38 build/default/debug/_ext/1665200909/heap_1.o
 .debug_aranges
                0x00000660       0x58 build/default/debug/_ext/951553248/port.o
 .debug_aranges
                0x000006b8       0x20 build/default/debug/_ext/951553248/port_asm.o
 .debug_aranges
                0x000006d8       0x18 build/default/debug/_ext/404212886/croutine.o
 .debug_aranges
                0x000006f0       0x40 build/default/debug/_ext/404212886/list.o
 .debug_aranges
                0x00000730      0x138 build/default/debug/_ext/404212886/queue.o
 .debug_aranges
                0x00000868      0x1b0 build/default/debug/_ext/404212886/FreeRTOS_tasks.o
 .debug_aranges
                0x00000a18       0xc0 build/default/debug/_ext/404212886/timers.o
 .debug_aranges
                0x00000ad8       0x68 build/default/debug/_ext/404212886/event_groups.o
 .debug_aranges
                0x00000b40       0xc0 build/default/debug/_ext/404212886/stream_buffer.o
 .debug_aranges
                0x00000c00       0xa0 build/default/debug/_ext/659830161/MDB.o
 .debug_aranges
                0x00000ca0       0xb8 build/default/debug/_ext/659830161/MDB_CG.o
 .debug_aranges
                0x00000d58       0x88 build/default/debug/_ext/659830161/MDB_BV.o
 .debug_aranges
                0x00000de0       0x80 build/default/debug/_ext/1529399856/osal_freertos.o
 .debug_aranges
                0x00000e60       0xe0 build/default/debug/_ext/1360937237/hd44780.o
 .debug_aranges
                0x00000f40       0x20 build/default/debug/_ext/1360937237/delay_us.o
 .debug_aranges
                0x00000f60       0x40 build/default/debug/_ext/1360937237/leds.o
 .debug_aranges
                0x00000fa0       0x78 build/default/debug/_ext/1360937237/DS18B20.o
 .debug_aranges
                0x00001018       0x80 build/default/debug/_ext/1360937237/contacts.o
 .debug_aranges
                0x00001098       0x68 build/default/debug/_ext/1360937237/moteurs.o
 .debug_aranges
                0x00001100       0x38 build/default/debug/_ext/1360937237/trap_security.o
 .debug_aranges
                0x00001138       0x20 build/default/debug/_ext/1360937237/main.o
 .debug_aranges
                0x00001158       0x70 build/default/debug/_ext/1360937237/mainboard2.o
 .debug_aranges
                0x000011c8       0x40 C:\Users\ADMINI~1\AppData\Local\Temp\cc3xLHuC.o
 .debug_aranges
                0x00001208       0x20 d:/program files (x86)/microchip/xc32/v2.30/bin/bin/../../lib/gcc/pic32mx/4.8.3\libgcc.a(floatunsisf.o)
 .debug_aranges
                0x00001228       0x20 d:/program files (x86)/microchip/xc32/v2.30/bin/bin/../../lib/gcc/pic32mx/4.8.3/../../../../pic32mx/lib\libpic32.a(default-bootstrap-exception-handler.o)
 .debug_aranges
                0x00001248       0x20 d:/program files (x86)/microchip/xc32/v2.30/bin/bin/../../lib/gcc/pic32mx/4.8.3/../../../../pic32mx/lib\libpic32.a(default-on-reset.o)
 .debug_aranges
                0x00001268       0x20 d:/program files (x86)/microchip/xc32/v2.30/bin/bin/../../lib/gcc/pic32mx/4.8.3/../../../../pic32mx/lib\libpic32.a(default-on-bootstrap.o)
 .debug_aranges
                0x00001288       0x20 d:/program files (x86)/microchip/xc32/v2.30/bin/bin/../../lib/gcc/pic32mx/4.8.3/../../../../pic32mx/lib\libpic32.a(defaultinterrupt.o)
 .debug_aranges
                0x000012a8       0x20 d:/program files (x86)/microchip/xc32/v2.30/bin/bin/../../lib/gcc/pic32mx/4.8.3/../../../../pic32mx/lib\libc.a(memmove.o)
 .debug_aranges
                0x000012c8       0x20 d:/program files (x86)/microchip/xc32/v2.30/bin/bin/../../lib/gcc/pic32mx/4.8.3/../../../../pic32mx/lib\libc.a(vprintf.o)
 .debug_aranges
                0x000012e8       0x30 d:/program files (x86)/microchip/xc32/v2.30/bin/bin/../../lib/gcc/pic32mx/4.8.3/../../../../pic32mx/lib\libc.a(doprnt.o)
 .debug_aranges
                0x00001318       0x20 d:/program files (x86)/microchip/xc32/v2.30/bin/bin/../../lib/gcc/pic32mx/4.8.3/../../../../pic32mx/lib\libc.a(_fputc_simple.o)
 .debug_aranges
                0x00001338       0x20 d:/program files (x86)/microchip/xc32/v2.30/bin/bin/../../lib/gcc/pic32mx/4.8.3/../../../../pic32mx/lib\libc.a(_flsbuf_simple.o)
 .debug_aranges
                0x00001358       0x20 d:/program files (x86)/microchip/xc32/v2.30/bin/bin/../../lib/gcc/pic32mx/4.8.3/../../../../pic32mx/lib\libe.a(_fixunsdfdi.o)
 .debug_aranges
                0x00001378       0x20 d:/program files (x86)/microchip/xc32/v2.30/bin/bin/../../lib/gcc/pic32mx/4.8.3/../../../../pic32mx/lib\libe.a(_orderdf2.o)
 .debug_aranges
                0x00001398       0x20 d:/program files (x86)/microchip/xc32/v2.30/bin/bin/../../lib/gcc/pic32mx/4.8.3/../../../../pic32mx/lib\libe.a(_fixdfdi.o)
 .debug_aranges
                0x000013b8       0x20 d:/program files (x86)/microchip/xc32/v2.30/bin/bin/../../lib/gcc/pic32mx/4.8.3\libgcc.a(_floatundidf.o)
 .debug_aranges
                0x000013d8       0x20 d:/program files (x86)/microchip/xc32/v2.30/bin/bin/../../lib/gcc/pic32mx/4.8.3\libgcc.a(_udivdi3.o)
 .debug_aranges
                0x000013f8       0x20 d:/program files (x86)/microchip/xc32/v2.30/bin/bin/../../lib/gcc/pic32mx/4.8.3\libgcc.a(_umoddi3.o)
 .debug_aranges
                0x00001418       0x20 d:/program files (x86)/microchip/xc32/v2.30/bin/bin/../../lib/gcc/pic32mx/4.8.3\libgcc.a(floatunsidf.o)
 .debug_aranges
                0x00001438       0x20 d:/program files (x86)/microchip/xc32/v2.30/bin/bin/../../lib/gcc/pic32mx/4.8.3/../../../../pic32mx/lib\libpic32.a(write.o)

.debug_pubnames
 *(.debug_pubnames)

.debug_info     0x00000000    0x22c0b
 *(.debug_info .gnu.linkonce.wi.*)
 .debug_info    0x00000000       0xe3 d:/program files (x86)/microchip/xc32/v2.30/bin/bin/../../lib/gcc/pic32mx/4.8.3/../../../../pic32mx/lib\software-debug-break.o
 .debug_info    0x000000e3     0x104e build/default/debug/_ext/897820976/drv_at24.o
 .debug_info    0x00001131     0x10cb build/default/debug/_ext/60163342/plib_adc.o
 .debug_info    0x000021fc      0x283 build/default/debug/_ext/60165520/plib_clk.o
 .debug_info    0x0000247f      0xba0 build/default/debug/_ext/1865200349/plib_evic.o
 .debug_info    0x0000301f      0x787 build/default/debug/_ext/1865254177/plib_gpio.o
 .debug_info    0x000037a6      0x991 build/default/debug/_ext/60169480/plib_i2c1.o
 .debug_info    0x00004137      0x791 build/default/debug/_ext/60176403/plib_nvm.o
 .debug_info    0x000048c8      0x370 build/default/debug/_ext/1865569570/plib_rcon.o
 .debug_info    0x00004c38      0x828 build/default/debug/_ext/1865657120/plib_uart3.o
 .debug_info    0x00005460      0x828 build/default/debug/_ext/1865657120/plib_uart1.o
 .debug_info    0x00005c88      0x50c build/default/debug/_ext/14461671/sys_dma.o
 .debug_info    0x00006194      0xb25 build/default/debug/_ext/1881668453/sys_int.o
 .debug_info    0x00006cb9      0xaa7 build/default/debug/_ext/1171490990/initialization.o
 .debug_info    0x00007760      0x3ee build/default/debug/_ext/1171490990/interrupts.o
 .debug_info    0x00007b4e       0x8d build/default/debug/_ext/1171490990/interrupts_a.o
 .debug_info    0x00007bdb      0x390 build/default/debug/_ext/1171490990/exceptions.o
 .debug_info    0x00007f6b      0x366 build/default/debug/_ext/1171490990/freertos_hooks.o
 .debug_info    0x000082d1      0x4d2 build/default/debug/_ext/1171490990/tasks.o
 .debug_info    0x000087a3     0x1137 build/default/debug/_ext/1360937237/audits.o
 .debug_info    0x000098da      0xe71 build/default/debug/_ext/1360937237/parameters.o
 .debug_info    0x0000a74b      0x7ec build/default/debug/_ext/1360937237/dataCommun.o
 .debug_info    0x0000af37      0x342 build/default/debug/_ext/1665200909/heap_1.o
 .debug_info    0x0000b279      0xe37 build/default/debug/_ext/951553248/port.o
 .debug_info    0x0000c0b0       0xb6 build/default/debug/_ext/951553248/port_asm.o
 .debug_info    0x0000c166      0x168 build/default/debug/_ext/404212886/croutine.o
 .debug_info    0x0000c2ce      0x47d build/default/debug/_ext/404212886/list.o
 .debug_info    0x0000c74b     0x2656 build/default/debug/_ext/404212886/queue.o
 .debug_info    0x0000eda1     0x2b62 build/default/debug/_ext/404212886/FreeRTOS_tasks.o
 .debug_info    0x00011903     0x168e build/default/debug/_ext/404212886/timers.o
 .debug_info    0x00012f91      0xd66 build/default/debug/_ext/404212886/event_groups.o
 .debug_info    0x00013cf7     0x1880 build/default/debug/_ext/404212886/stream_buffer.o
 .debug_info    0x00015577     0x13d1 build/default/debug/_ext/659830161/MDB.o
 .debug_info    0x00016948     0x1c8b build/default/debug/_ext/659830161/MDB_CG.o
 .debug_info    0x000185d3     0x11ae build/default/debug/_ext/659830161/MDB_BV.o
 .debug_info    0x00019781      0xa46 build/default/debug/_ext/1529399856/osal_freertos.o
 .debug_info    0x0001a1c7     0x1740 build/default/debug/_ext/1360937237/hd44780.o
 .debug_info    0x0001b907      0x1a8 build/default/debug/_ext/1360937237/delay_us.o
 .debug_info    0x0001baaf      0x7cf build/default/debug/_ext/1360937237/leds.o
 .debug_info    0x0001c27e      0xc8f build/default/debug/_ext/1360937237/DS18B20.o
 .debug_info    0x0001cf0d      0xbae build/default/debug/_ext/1360937237/contacts.o
 .debug_info    0x0001dabb      0x7b5 build/default/debug/_ext/1360937237/moteurs.o
 .debug_info    0x0001e270      0xd44 build/default/debug/_ext/1360937237/trap_security.o
 .debug_info    0x0001efb4      0x365 build/default/debug/_ext/1360937237/main.o
 .debug_info    0x0001f319     0x1a1e build/default/debug/_ext/1360937237/mainboard2.o
 .debug_info    0x00020d37       0xce C:\Users\ADMINI~1\AppData\Local\Temp\cc3xLHuC.o
 .debug_info    0x00020e05      0x129 d:/program files (x86)/microchip/xc32/v2.30/bin/bin/../../lib/gcc/pic32mx/4.8.3\libgcc.a(floatunsisf.o)
 .debug_info    0x00020f2e       0xf4 d:/program files (x86)/microchip/xc32/v2.30/bin/bin/../../lib/gcc/pic32mx/4.8.3/../../../../pic32mx/lib\libpic32.a(default-bootstrap-exception-handler.o)
 .debug_info    0x00021022       0xcd d:/program files (x86)/microchip/xc32/v2.30/bin/bin/../../lib/gcc/pic32mx/4.8.3/../../../../pic32mx/lib\libpic32.a(default-on-reset.o)
 .debug_info    0x000210ef       0xd5 d:/program files (x86)/microchip/xc32/v2.30/bin/bin/../../lib/gcc/pic32mx/4.8.3/../../../../pic32mx/lib\libpic32.a(default-on-bootstrap.o)
 .debug_info    0x000211c4       0xe7 d:/program files (x86)/microchip/xc32/v2.30/bin/bin/../../lib/gcc/pic32mx/4.8.3/../../../../pic32mx/lib\libpic32.a(defaultinterrupt.o)
 .debug_info    0x000212ab       0xc6 d:/program files (x86)/microchip/xc32/v2.30/bin/bin/../../lib/gcc/pic32mx/4.8.3/../../../../pic32mx/lib\libc.a(memmove.o)
 .debug_info    0x00021371       0xc6 d:/program files (x86)/microchip/xc32/v2.30/bin/bin/../../lib/gcc/pic32mx/4.8.3/../../../../pic32mx/lib\libc.a(vprintf.o)
 .debug_info    0x00021437       0xfe d:/program files (x86)/microchip/xc32/v2.30/bin/bin/../../lib/gcc/pic32mx/4.8.3/../../../../pic32mx/lib\libc.a(doprnt.o)
 .debug_info    0x00021535       0xc2 d:/program files (x86)/microchip/xc32/v2.30/bin/bin/../../lib/gcc/pic32mx/4.8.3/../../../../pic32mx/lib\libc.a(_fputc_simple.o)
 .debug_info    0x000215f7       0xc5 d:/program files (x86)/microchip/xc32/v2.30/bin/bin/../../lib/gcc/pic32mx/4.8.3/../../../../pic32mx/lib\libc.a(_flsbuf_simple.o)
 .debug_info    0x000216bc       0xce d:/program files (x86)/microchip/xc32/v2.30/bin/bin/../../lib/gcc/pic32mx/4.8.3/../../../../pic32mx/lib\libe.a(_fixunsdfdi.o)
 .debug_info    0x0002178a       0xba d:/program files (x86)/microchip/xc32/v2.30/bin/bin/../../lib/gcc/pic32mx/4.8.3/../../../../pic32mx/lib\libe.a(_orderdf2.o)
 .debug_info    0x00021844       0xb9 d:/program files (x86)/microchip/xc32/v2.30/bin/bin/../../lib/gcc/pic32mx/4.8.3/../../../../pic32mx/lib\libe.a(_fixdfdi.o)
 .debug_info    0x000218fd      0x245 d:/program files (x86)/microchip/xc32/v2.30/bin/bin/../../lib/gcc/pic32mx/4.8.3\libgcc.a(_floatundidf.o)
 .debug_info    0x00021b42      0x74b d:/program files (x86)/microchip/xc32/v2.30/bin/bin/../../lib/gcc/pic32mx/4.8.3\libgcc.a(_udivdi3.o)
 .debug_info    0x0002228d      0x788 d:/program files (x86)/microchip/xc32/v2.30/bin/bin/../../lib/gcc/pic32mx/4.8.3\libgcc.a(_umoddi3.o)
 .debug_info    0x00022a15      0x137 d:/program files (x86)/microchip/xc32/v2.30/bin/bin/../../lib/gcc/pic32mx/4.8.3\libgcc.a(floatunsidf.o)
 .debug_info    0x00022b4c       0xbf d:/program files (x86)/microchip/xc32/v2.30/bin/bin/../../lib/gcc/pic32mx/4.8.3/../../../../pic32mx/lib\libpic32.a(write.o)

.debug_abbrev   0x00000000     0x5231
 *(.debug_abbrev)
 .debug_abbrev  0x00000000       0x28 d:/program files (x86)/microchip/xc32/v2.30/bin/bin/../../lib/gcc/pic32mx/4.8.3/../../../../pic32mx/lib\software-debug-break.o
 .debug_abbrev  0x00000028      0x26b build/default/debug/_ext/897820976/drv_at24.o
 .debug_abbrev  0x00000293      0x1ab build/default/debug/_ext/60163342/plib_adc.o
 .debug_abbrev  0x0000043e       0x6f build/default/debug/_ext/60165520/plib_clk.o
 .debug_abbrev  0x000004ad       0xd1 build/default/debug/_ext/1865200349/plib_evic.o
 .debug_abbrev  0x0000057e      0x143 build/default/debug/_ext/1865254177/plib_gpio.o
 .debug_abbrev  0x000006c1      0x1be build/default/debug/_ext/60169480/plib_i2c1.o
 .debug_abbrev  0x0000087f      0x19b build/default/debug/_ext/60176403/plib_nvm.o
 .debug_abbrev  0x00000a1a       0xb7 build/default/debug/_ext/1865569570/plib_rcon.o
 .debug_abbrev  0x00000ad1      0x190 build/default/debug/_ext/1865657120/plib_uart3.o
 .debug_abbrev  0x00000c61      0x190 build/default/debug/_ext/1865657120/plib_uart1.o
 .debug_abbrev  0x00000df1       0xa6 build/default/debug/_ext/14461671/sys_dma.o
 .debug_abbrev  0x00000e97      0x123 build/default/debug/_ext/1881668453/sys_int.o
 .debug_abbrev  0x00000fba      0x1c6 build/default/debug/_ext/1171490990/initialization.o
 .debug_abbrev  0x00001180      0x113 build/default/debug/_ext/1171490990/interrupts.o
 .debug_abbrev  0x00001293       0x12 build/default/debug/_ext/1171490990/interrupts_a.o
 .debug_abbrev  0x000012a5       0xf2 build/default/debug/_ext/1171490990/exceptions.o
 .debug_abbrev  0x00001397       0xe1 build/default/debug/_ext/1171490990/freertos_hooks.o
 .debug_abbrev  0x00001478      0x132 build/default/debug/_ext/1171490990/tasks.o
 .debug_abbrev  0x000015aa      0x27f build/default/debug/_ext/1360937237/audits.o
 .debug_abbrev  0x00001829      0x27f build/default/debug/_ext/1360937237/parameters.o
 .debug_abbrev  0x00001aa8      0x1ae build/default/debug/_ext/1360937237/dataCommun.o
 .debug_abbrev  0x00001c56      0x123 build/default/debug/_ext/1665200909/heap_1.o
 .debug_abbrev  0x00001d79      0x291 build/default/debug/_ext/951553248/port.o
 .debug_abbrev  0x0000200a       0x14 build/default/debug/_ext/951553248/port_asm.o
 .debug_abbrev  0x0000201e       0x1b build/default/debug/_ext/404212886/croutine.o
 .debug_abbrev  0x00002039       0xe9 build/default/debug/_ext/404212886/list.o
 .debug_abbrev  0x00002122      0x2b6 build/default/debug/_ext/404212886/queue.o
 .debug_abbrev  0x000023d8      0x2c0 build/default/debug/_ext/404212886/FreeRTOS_tasks.o
 .debug_abbrev  0x00002698      0x2d6 build/default/debug/_ext/404212886/timers.o
 .debug_abbrev  0x0000296e      0x246 build/default/debug/_ext/404212886/event_groups.o
 .debug_abbrev  0x00002bb4      0x2b7 build/default/debug/_ext/404212886/stream_buffer.o
 .debug_abbrev  0x00002e6b      0x315 build/default/debug/_ext/659830161/MDB.o
 .debug_abbrev  0x00003180      0x366 build/default/debug/_ext/659830161/MDB_CG.o
 .debug_abbrev  0x000034e6      0x317 build/default/debug/_ext/659830161/MDB_BV.o
 .debug_abbrev  0x000037fd      0x1e6 build/default/debug/_ext/1529399856/osal_freertos.o
 .debug_abbrev  0x000039e3      0x2bd build/default/debug/_ext/1360937237/hd44780.o
 .debug_abbrev  0x00003ca0       0x6d build/default/debug/_ext/1360937237/delay_us.o
 .debug_abbrev  0x00003d0d      0x20c build/default/debug/_ext/1360937237/leds.o
 .debug_abbrev  0x00003f19      0x2ec build/default/debug/_ext/1360937237/DS18B20.o
 .debug_abbrev  0x00004205      0x2d3 build/default/debug/_ext/1360937237/contacts.o
 .debug_abbrev  0x000044d8      0x1f9 build/default/debug/_ext/1360937237/moteurs.o
 .debug_abbrev  0x000046d1      0x1b1 build/default/debug/_ext/1360937237/trap_security.o
 .debug_abbrev  0x00004882      0x10d build/default/debug/_ext/1360937237/main.o
 .debug_abbrev  0x0000498f      0x2b5 build/default/debug/_ext/1360937237/mainboard2.o
 .debug_abbrev  0x00004c44       0x12 C:\Users\ADMINI~1\AppData\Local\Temp\cc3xLHuC.o
 .debug_abbrev  0x00004c56       0x62 d:/program files (x86)/microchip/xc32/v2.30/bin/bin/../../lib/gcc/pic32mx/4.8.3\libgcc.a(floatunsisf.o)
 .debug_abbrev  0x00004cb8       0x28 d:/program files (x86)/microchip/xc32/v2.30/bin/bin/../../lib/gcc/pic32mx/4.8.3/../../../../pic32mx/lib\libpic32.a(default-bootstrap-exception-handler.o)
 .debug_abbrev  0x00004ce0       0x28 d:/program files (x86)/microchip/xc32/v2.30/bin/bin/../../lib/gcc/pic32mx/4.8.3/../../../../pic32mx/lib\libpic32.a(default-on-reset.o)
 .debug_abbrev  0x00004d08       0x28 d:/program files (x86)/microchip/xc32/v2.30/bin/bin/../../lib/gcc/pic32mx/4.8.3/../../../../pic32mx/lib\libpic32.a(default-on-bootstrap.o)
 .debug_abbrev  0x00004d30       0x28 d:/program files (x86)/microchip/xc32/v2.30/bin/bin/../../lib/gcc/pic32mx/4.8.3/../../../../pic32mx/lib\libpic32.a(defaultinterrupt.o)
 .debug_abbrev  0x00004d58       0x28 d:/program files (x86)/microchip/xc32/v2.30/bin/bin/../../lib/gcc/pic32mx/4.8.3/../../../../pic32mx/lib\libc.a(memmove.o)
 .debug_abbrev  0x00004d80       0x28 d:/program files (x86)/microchip/xc32/v2.30/bin/bin/../../lib/gcc/pic32mx/4.8.3/../../../../pic32mx/lib\libc.a(vprintf.o)
 .debug_abbrev  0x00004da8       0x45 d:/program files (x86)/microchip/xc32/v2.30/bin/bin/../../lib/gcc/pic32mx/4.8.3/../../../../pic32mx/lib\libc.a(doprnt.o)
 .debug_abbrev  0x00004ded       0x28 d:/program files (x86)/microchip/xc32/v2.30/bin/bin/../../lib/gcc/pic32mx/4.8.3/../../../../pic32mx/lib\libc.a(_fputc_simple.o)
 .debug_abbrev  0x00004e15       0x28 d:/program files (x86)/microchip/xc32/v2.30/bin/bin/../../lib/gcc/pic32mx/4.8.3/../../../../pic32mx/lib\libc.a(_flsbuf_simple.o)
 .debug_abbrev  0x00004e3d       0x37 d:/program files (x86)/microchip/xc32/v2.30/bin/bin/../../lib/gcc/pic32mx/4.8.3/../../../../pic32mx/lib\libe.a(_fixunsdfdi.o)
 .debug_abbrev  0x00004e74       0x28 d:/program files (x86)/microchip/xc32/v2.30/bin/bin/../../lib/gcc/pic32mx/4.8.3/../../../../pic32mx/lib\libe.a(_orderdf2.o)
 .debug_abbrev  0x00004e9c       0x28 d:/program files (x86)/microchip/xc32/v2.30/bin/bin/../../lib/gcc/pic32mx/4.8.3/../../../../pic32mx/lib\libe.a(_fixdfdi.o)
 .debug_abbrev  0x00004ec4       0x64 d:/program files (x86)/microchip/xc32/v2.30/bin/bin/../../lib/gcc/pic32mx/4.8.3\libgcc.a(_floatundidf.o)
 .debug_abbrev  0x00004f28      0x138 d:/program files (x86)/microchip/xc32/v2.30/bin/bin/../../lib/gcc/pic32mx/4.8.3\libgcc.a(_udivdi3.o)
 .debug_abbrev  0x00005060      0x147 d:/program files (x86)/microchip/xc32/v2.30/bin/bin/../../lib/gcc/pic32mx/4.8.3\libgcc.a(_umoddi3.o)
 .debug_abbrev  0x000051a7       0x62 d:/program files (x86)/microchip/xc32/v2.30/bin/bin/../../lib/gcc/pic32mx/4.8.3\libgcc.a(floatunsidf.o)
 .debug_abbrev  0x00005209       0x28 d:/program files (x86)/microchip/xc32/v2.30/bin/bin/../../lib/gcc/pic32mx/4.8.3/../../../../pic32mx/lib\libpic32.a(write.o)

.debug_line     0x00000000     0x9f82
 *(.debug_line)
 .debug_line    0x00000000       0x99 d:/program files (x86)/microchip/xc32/v2.30/bin/bin/../../lib/gcc/pic32mx/4.8.3/../../../../pic32mx/lib\software-debug-break.o
 .debug_line    0x00000099      0x45c build/default/debug/_ext/897820976/drv_at24.o
 .debug_line    0x000004f5      0x236 build/default/debug/_ext/60163342/plib_adc.o
 .debug_line    0x0000072b      0x16f build/default/debug/_ext/60165520/plib_clk.o
 .debug_line    0x0000089a      0x1f9 build/default/debug/_ext/1865200349/plib_evic.o
 .debug_line    0x00000a93      0x233 build/default/debug/_ext/1865254177/plib_gpio.o
 .debug_line    0x00000cc6      0x37b build/default/debug/_ext/60169480/plib_i2c1.o
 .debug_line    0x00001041      0x28a build/default/debug/_ext/60176403/plib_nvm.o
 .debug_line    0x000012cb      0x18f build/default/debug/_ext/1865569570/plib_rcon.o
 .debug_line    0x0000145a      0x2ec build/default/debug/_ext/1865657120/plib_uart3.o
 .debug_line    0x00001746      0x2ec build/default/debug/_ext/1865657120/plib_uart1.o
 .debug_line    0x00001a32      0x10a build/default/debug/_ext/14461671/sys_dma.o
 .debug_line    0x00001b3c      0x1a1 build/default/debug/_ext/1881668453/sys_int.o
 .debug_line    0x00001cdd      0x5eb build/default/debug/_ext/1171490990/initialization.o
 .debug_line    0x000022c8      0x26a build/default/debug/_ext/1171490990/interrupts.o
 .debug_line    0x00002532       0x99 build/default/debug/_ext/1171490990/interrupts_a.o
 .debug_line    0x000025cb      0x16f build/default/debug/_ext/1171490990/exceptions.o
 .debug_line    0x0000273a      0x221 build/default/debug/_ext/1171490990/freertos_hooks.o
 .debug_line    0x0000295b      0x253 build/default/debug/_ext/1171490990/tasks.o
 .debug_line    0x00002bae      0x559 build/default/debug/_ext/1360937237/audits.o
 .debug_line    0x00003107      0x47e build/default/debug/_ext/1360937237/parameters.o
 .debug_line    0x00003585      0x380 build/default/debug/_ext/1360937237/dataCommun.o
 .debug_line    0x00003905      0x275 build/default/debug/_ext/1665200909/heap_1.o
 .debug_line    0x00003b7a      0x2a9 build/default/debug/_ext/951553248/port.o
 .debug_line    0x00003e23       0xfc build/default/debug/_ext/951553248/port_asm.o
 .debug_line    0x00003f1f       0x1d build/default/debug/_ext/404212886/croutine.o
 .debug_line    0x00003f3c      0x246 build/default/debug/_ext/404212886/list.o
 .debug_line    0x00004182      0x76e build/default/debug/_ext/404212886/queue.o
 .debug_line    0x000048f0      0x96b build/default/debug/_ext/404212886/FreeRTOS_tasks.o
 .debug_line    0x0000525b      0x4d2 build/default/debug/_ext/404212886/timers.o
 .debug_line    0x0000572d      0x3a7 build/default/debug/_ext/404212886/event_groups.o
 .debug_line    0x00005ad4      0x50c build/default/debug/_ext/404212886/stream_buffer.o
 .debug_line    0x00005fe0      0x5b4 build/default/debug/_ext/659830161/MDB.o
 .debug_line    0x00006594      0x59a build/default/debug/_ext/659830161/MDB_CG.o
 .debug_line    0x00006b2e      0x495 build/default/debug/_ext/659830161/MDB_BV.o
 .debug_line    0x00006fc3      0x331 build/default/debug/_ext/1529399856/osal_freertos.o
 .debug_line    0x000072f4      0x5bd build/default/debug/_ext/1360937237/hd44780.o
 .debug_line    0x000078b1       0xd0 build/default/debug/_ext/1360937237/delay_us.o
 .debug_line    0x00007981      0x3a9 build/default/debug/_ext/1360937237/leds.o
 .debug_line    0x00007d2a      0x42d build/default/debug/_ext/1360937237/DS18B20.o
 .debug_line    0x00008157      0x41a build/default/debug/_ext/1360937237/contacts.o
 .debug_line    0x00008571      0x3d7 build/default/debug/_ext/1360937237/moteurs.o
 .debug_line    0x00008948      0x2f7 build/default/debug/_ext/1360937237/trap_security.o
 .debug_line    0x00008c3f      0x22f build/default/debug/_ext/1360937237/main.o
 .debug_line    0x00008e6e      0x4f8 build/default/debug/_ext/1360937237/mainboard2.o
 .debug_line    0x00009366      0x158 C:\Users\ADMINI~1\AppData\Local\Temp\cc3xLHuC.o
 .debug_line    0x000094be       0x94 d:/program files (x86)/microchip/xc32/v2.30/bin/bin/../../lib/gcc/pic32mx/4.8.3\libgcc.a(floatunsisf.o)
 .debug_line    0x00009552       0xa6 d:/program files (x86)/microchip/xc32/v2.30/bin/bin/../../lib/gcc/pic32mx/4.8.3/../../../../pic32mx/lib\libpic32.a(default-bootstrap-exception-handler.o)
 .debug_line    0x000095f8       0x93 d:/program files (x86)/microchip/xc32/v2.30/bin/bin/../../lib/gcc/pic32mx/4.8.3/../../../../pic32mx/lib\libpic32.a(default-on-reset.o)
 .debug_line    0x0000968b       0x97 d:/program files (x86)/microchip/xc32/v2.30/bin/bin/../../lib/gcc/pic32mx/4.8.3/../../../../pic32mx/lib\libpic32.a(default-on-bootstrap.o)
 .debug_line    0x00009722       0xa5 d:/program files (x86)/microchip/xc32/v2.30/bin/bin/../../lib/gcc/pic32mx/4.8.3/../../../../pic32mx/lib\libpic32.a(defaultinterrupt.o)
 .debug_line    0x000097c7       0x7f d:/program files (x86)/microchip/xc32/v2.30/bin/bin/../../lib/gcc/pic32mx/4.8.3/../../../../pic32mx/lib\libc.a(memmove.o)
 .debug_line    0x00009846       0x7f d:/program files (x86)/microchip/xc32/v2.30/bin/bin/../../lib/gcc/pic32mx/4.8.3/../../../../pic32mx/lib\libc.a(vprintf.o)
 .debug_line    0x000098c5        0x0 d:/program files (x86)/microchip/xc32/v2.30/bin/bin/../../lib/gcc/pic32mx/4.8.3/../../../../pic32mx/lib\libc.a(_iob.o)
 .debug_line    0x000098c5       0x7e d:/program files (x86)/microchip/xc32/v2.30/bin/bin/../../lib/gcc/pic32mx/4.8.3/../../../../pic32mx/lib\libc.a(doprnt.o)
 .debug_line    0x00009943       0x7d d:/program files (x86)/microchip/xc32/v2.30/bin/bin/../../lib/gcc/pic32mx/4.8.3/../../../../pic32mx/lib\libc.a(_fputc_simple.o)
 .debug_line    0x000099c0        0x0 d:/program files (x86)/microchip/xc32/v2.30/bin/bin/../../lib/gcc/pic32mx/4.8.3/../../../../pic32mx/lib\libc.a(ctype.o)
 .debug_line    0x000099c0        0x0 d:/program files (x86)/microchip/xc32/v2.30/bin/bin/../../lib/gcc/pic32mx/4.8.3/../../../../pic32mx/lib\libc.a(ldpowers.o)
 .debug_line    0x000099c0       0x7e d:/program files (x86)/microchip/xc32/v2.30/bin/bin/../../lib/gcc/pic32mx/4.8.3/../../../../pic32mx/lib\libc.a(_flsbuf_simple.o)
 .debug_line    0x00009a3e       0x82 d:/program files (x86)/microchip/xc32/v2.30/bin/bin/../../lib/gcc/pic32mx/4.8.3/../../../../pic32mx/lib\libe.a(_fixunsdfdi.o)
 .debug_line    0x00009ac0       0x81 d:/program files (x86)/microchip/xc32/v2.30/bin/bin/../../lib/gcc/pic32mx/4.8.3/../../../../pic32mx/lib\libe.a(_orderdf2.o)
 .debug_line    0x00009b41       0x81 d:/program files (x86)/microchip/xc32/v2.30/bin/bin/../../lib/gcc/pic32mx/4.8.3/../../../../pic32mx/lib\libe.a(_fixdfdi.o)
 .debug_line    0x00009bc2       0xa5 d:/program files (x86)/microchip/xc32/v2.30/bin/bin/../../lib/gcc/pic32mx/4.8.3\libgcc.a(_floatundidf.o)
 .debug_line    0x00009c67       0xf7 d:/program files (x86)/microchip/xc32/v2.30/bin/bin/../../lib/gcc/pic32mx/4.8.3\libgcc.a(_udivdi3.o)
 .debug_line    0x00009d5e      0x109 d:/program files (x86)/microchip/xc32/v2.30/bin/bin/../../lib/gcc/pic32mx/4.8.3\libgcc.a(_umoddi3.o)
 .debug_line    0x00009e67       0x93 d:/program files (x86)/microchip/xc32/v2.30/bin/bin/../../lib/gcc/pic32mx/4.8.3\libgcc.a(floatunsidf.o)
 .debug_line    0x00009efa       0x88 d:/program files (x86)/microchip/xc32/v2.30/bin/bin/../../lib/gcc/pic32mx/4.8.3/../../../../pic32mx/lib\libpic32.a(write.o)

.debug_frame    0x00000000     0x3f14
 *(.debug_frame)
 .debug_frame   0x00000000       0x20 d:/program files (x86)/microchip/xc32/v2.30/bin/bin/../../lib/gcc/pic32mx/4.8.3/../../../../pic32mx/lib\software-debug-break.o
 .debug_frame   0x00000020      0x1f0 build/default/debug/_ext/897820976/drv_at24.o
 .debug_frame   0x00000210      0x174 build/default/debug/_ext/60163342/plib_adc.o
 .debug_frame   0x00000384       0x34 build/default/debug/_ext/60165520/plib_clk.o
 .debug_frame   0x000003b8       0xf0 build/default/debug/_ext/1865200349/plib_evic.o
 .debug_frame   0x000004a8      0x134 build/default/debug/_ext/1865254177/plib_gpio.o
 .debug_frame   0x000005dc      0x1ac build/default/debug/_ext/60169480/plib_i2c1.o
 .debug_frame   0x00000788      0x104 build/default/debug/_ext/60176403/plib_nvm.o
 .debug_frame   0x0000088c       0x6c build/default/debug/_ext/1865569570/plib_rcon.o
 .debug_frame   0x000008f8      0x17c build/default/debug/_ext/1865657120/plib_uart3.o
 .debug_frame   0x00000a74      0x17c build/default/debug/_ext/1865657120/plib_uart1.o
 .debug_frame   0x00000bf0       0x70 build/default/debug/_ext/14461671/sys_dma.o
 .debug_frame   0x00000c60       0xc4 build/default/debug/_ext/1881668453/sys_int.o
 .debug_frame   0x00000d24       0x34 build/default/debug/_ext/1171490990/initialization.o
 .debug_frame   0x00000d58       0x58 build/default/debug/_ext/1171490990/interrupts.o
 .debug_frame   0x00000db0       0x2c build/default/debug/_ext/1171490990/exceptions.o
 .debug_frame   0x00000ddc       0xac build/default/debug/_ext/1171490990/freertos_hooks.o
 .debug_frame   0x00000e88       0x50 build/default/debug/_ext/1171490990/tasks.o
 .debug_frame   0x00000ed8       0xf8 build/default/debug/_ext/1360937237/audits.o
 .debug_frame   0x00000fd0      0x184 build/default/debug/_ext/1360937237/parameters.o
 .debug_frame   0x00001154       0x74 build/default/debug/_ext/1360937237/dataCommun.o
 .debug_frame   0x000011c8       0x94 build/default/debug/_ext/1665200909/heap_1.o
 .debug_frame   0x0000125c      0x120 build/default/debug/_ext/951553248/port.o
 .debug_frame   0x0000137c       0xb0 build/default/debug/_ext/404212886/list.o
 .debug_frame   0x0000142c      0x504 build/default/debug/_ext/404212886/queue.o
 .debug_frame   0x00001930      0x700 build/default/debug/_ext/404212886/FreeRTOS_tasks.o
 .debug_frame   0x00002030      0x2e8 build/default/debug/_ext/404212886/timers.o
 .debug_frame   0x00002318      0x174 build/default/debug/_ext/404212886/event_groups.o
 .debug_frame   0x0000248c      0x2f4 build/default/debug/_ext/404212886/stream_buffer.o
 .debug_frame   0x00002780      0x250 build/default/debug/_ext/659830161/MDB.o
 .debug_frame   0x000029d0      0x2b8 build/default/debug/_ext/659830161/MDB_CG.o
 .debug_frame   0x00002c88      0x1ec build/default/debug/_ext/659830161/MDB_BV.o
 .debug_frame   0x00002e74      0x1e0 build/default/debug/_ext/1529399856/osal_freertos.o
 .debug_frame   0x00003054      0x380 build/default/debug/_ext/1360937237/hd44780.o
 .debug_frame   0x000033d4       0x30 build/default/debug/_ext/1360937237/delay_us.o
 .debug_frame   0x00003404       0xb4 build/default/debug/_ext/1360937237/leds.o
 .debug_frame   0x000034b8      0x1b4 build/default/debug/_ext/1360937237/DS18B20.o
 .debug_frame   0x0000366c      0x1b4 build/default/debug/_ext/1360937237/contacts.o
 .debug_frame   0x00003820      0x15c build/default/debug/_ext/1360937237/moteurs.o
 .debug_frame   0x0000397c       0x94 build/default/debug/_ext/1360937237/trap_security.o
 .debug_frame   0x00003a10       0x2c build/default/debug/_ext/1360937237/main.o
 .debug_frame   0x00003a3c      0x188 build/default/debug/_ext/1360937237/mainboard2.o
 .debug_frame   0x00003bc4       0x30 d:/program files (x86)/microchip/xc32/v2.30/bin/bin/../../lib/gcc/pic32mx/4.8.3\libgcc.a(floatunsisf.o)
 .debug_frame   0x00003bf4       0x2c d:/program files (x86)/microchip/xc32/v2.30/bin/bin/../../lib/gcc/pic32mx/4.8.3/../../../../pic32mx/lib\libpic32.a(default-bootstrap-exception-handler.o)
 .debug_frame   0x00003c20       0x20 d:/program files (x86)/microchip/xc32/v2.30/bin/bin/../../lib/gcc/pic32mx/4.8.3/../../../../pic32mx/lib\libpic32.a(default-on-reset.o)
 .debug_frame   0x00003c40       0x20 d:/program files (x86)/microchip/xc32/v2.30/bin/bin/../../lib/gcc/pic32mx/4.8.3/../../../../pic32mx/lib\libpic32.a(default-on-bootstrap.o)
 .debug_frame   0x00003c60       0x20 d:/program files (x86)/microchip/xc32/v2.30/bin/bin/../../lib/gcc/pic32mx/4.8.3/../../../../pic32mx/lib\libpic32.a(defaultinterrupt.o)
 .debug_frame   0x00003c80       0x20 d:/program files (x86)/microchip/xc32/v2.30/bin/bin/../../lib/gcc/pic32mx/4.8.3/../../../../pic32mx/lib\libc.a(memmove.o)
 .debug_frame   0x00003ca0       0x2c d:/program files (x86)/microchip/xc32/v2.30/bin/bin/../../lib/gcc/pic32mx/4.8.3/../../../../pic32mx/lib\libc.a(vprintf.o)
 .debug_frame   0x00003ccc       0x9c d:/program files (x86)/microchip/xc32/v2.30/bin/bin/../../lib/gcc/pic32mx/4.8.3/../../../../pic32mx/lib\libc.a(doprnt.o)
 .debug_frame   0x00003d68       0x30 d:/program files (x86)/microchip/xc32/v2.30/bin/bin/../../lib/gcc/pic32mx/4.8.3/../../../../pic32mx/lib\libc.a(_fputc_simple.o)
 .debug_frame   0x00003d98       0x38 d:/program files (x86)/microchip/xc32/v2.30/bin/bin/../../lib/gcc/pic32mx/4.8.3/../../../../pic32mx/lib\libc.a(_flsbuf_simple.o)
 .debug_frame   0x00003dd0       0x34 d:/program files (x86)/microchip/xc32/v2.30/bin/bin/../../lib/gcc/pic32mx/4.8.3/../../../../pic32mx/lib\libe.a(_fixunsdfdi.o)
 .debug_frame   0x00003e04       0x20 d:/program files (x86)/microchip/xc32/v2.30/bin/bin/../../lib/gcc/pic32mx/4.8.3/../../../../pic32mx/lib\libe.a(_orderdf2.o)
 .debug_frame   0x00003e24       0x20 d:/program files (x86)/microchip/xc32/v2.30/bin/bin/../../lib/gcc/pic32mx/4.8.3/../../../../pic32mx/lib\libe.a(_fixdfdi.o)
 .debug_frame   0x00003e44       0x2c d:/program files (x86)/microchip/xc32/v2.30/bin/bin/../../lib/gcc/pic32mx/4.8.3\libgcc.a(_floatundidf.o)
 .debug_frame   0x00003e70       0x20 d:/program files (x86)/microchip/xc32/v2.30/bin/bin/../../lib/gcc/pic32mx/4.8.3\libgcc.a(_udivdi3.o)
 .debug_frame   0x00003e90       0x20 d:/program files (x86)/microchip/xc32/v2.30/bin/bin/../../lib/gcc/pic32mx/4.8.3\libgcc.a(_umoddi3.o)
 .debug_frame   0x00003eb0       0x2c d:/program files (x86)/microchip/xc32/v2.30/bin/bin/../../lib/gcc/pic32mx/4.8.3\libgcc.a(floatunsidf.o)
 .debug_frame   0x00003edc       0x38 d:/program files (x86)/microchip/xc32/v2.30/bin/bin/../../lib/gcc/pic32mx/4.8.3/../../../../pic32mx/lib\libpic32.a(write.o)

.debug_str      0x00000000      0x869
 *(.debug_str)
 .debug_str     0x00000000        0x0 d:/program files (x86)/microchip/xc32/v2.30/bin/bin/../../lib/gcc/pic32mx/4.8.3/../../../../pic32mx/lib\software-debug-break.o
 .debug_str     0x00000000       0x9e build/default/debug/_ext/897820976/drv_at24.o
 .debug_str     0x0000009e        0x0 build/default/debug/_ext/60163342/plib_adc.o
 .debug_str     0x0000009e        0x0 build/default/debug/_ext/60165520/plib_clk.o
 .debug_str     0x0000009e        0x7 build/default/debug/_ext/1865200349/plib_evic.o
 .debug_str     0x000000a5        0xa build/default/debug/_ext/1865254177/plib_gpio.o
 .debug_str     0x000000af       0x11 build/default/debug/_ext/60169480/plib_i2c1.o
 .debug_str     0x000000c0        0x8 build/default/debug/_ext/60176403/plib_nvm.o
 .debug_str     0x000000c8        0x0 build/default/debug/_ext/1865569570/plib_rcon.o
 .debug_str     0x000000c8       0x15 build/default/debug/_ext/1865657120/plib_uart3.o
 .debug_str     0x000000dd       0x15 build/default/debug/_ext/1865657120/plib_uart1.o
 .debug_str     0x000000f2        0x8 build/default/debug/_ext/14461671/sys_dma.o
 .debug_str     0x000000fa        0x0 build/default/debug/_ext/1881668453/sys_int.o
 .debug_str     0x000000fa        0x0 build/default/debug/_ext/1171490990/initialization.o
 .debug_str     0x000000fa        0x0 build/default/debug/_ext/1171490990/interrupts.o
 .debug_str     0x000000fa        0x0 build/default/debug/_ext/1171490990/exceptions.o
 .debug_str     0x000000fa        0x9 build/default/debug/_ext/1171490990/freertos_hooks.o
 .debug_str     0x00000103        0x0 build/default/debug/_ext/1171490990/tasks.o
 .debug_str     0x00000103        0x0 build/default/debug/_ext/1360937237/audits.o
 .debug_str     0x00000103        0x0 build/default/debug/_ext/1360937237/parameters.o
 .debug_str     0x00000103        0x0 build/default/debug/_ext/1360937237/dataCommun.o
 .debug_str     0x00000103        0x0 build/default/debug/_ext/1665200909/heap_1.o
 .debug_str     0x00000103       0x37 build/default/debug/_ext/951553248/port.o
 .debug_str     0x0000013a        0x0 build/default/debug/_ext/404212886/croutine.o
 .debug_str     0x0000013a       0x2b build/default/debug/_ext/404212886/list.o
 .debug_str     0x00000165      0x177 build/default/debug/_ext/404212886/queue.o
 .debug_str     0x000002dc      0x18d build/default/debug/_ext/404212886/FreeRTOS_tasks.o
 .debug_str     0x00000469       0xd2 build/default/debug/_ext/404212886/timers.o
 .debug_str     0x0000053b       0xe6 build/default/debug/_ext/404212886/event_groups.o
 .debug_str     0x00000621      0x142 build/default/debug/_ext/404212886/stream_buffer.o
 .debug_str     0x00000763       0x27 build/default/debug/_ext/659830161/MDB.o
 .debug_str     0x0000078a       0x3a build/default/debug/_ext/659830161/MDB_CG.o
 .debug_str     0x000007c4       0x21 build/default/debug/_ext/659830161/MDB_BV.o
 .debug_str     0x000007e5       0x40 build/default/debug/_ext/1529399856/osal_freertos.o
 .debug_str     0x00000825       0x11 build/default/debug/_ext/1360937237/hd44780.o
 .debug_str     0x00000836        0x0 build/default/debug/_ext/1360937237/delay_us.o
 .debug_str     0x00000836        0x8 build/default/debug/_ext/1360937237/leds.o
 .debug_str     0x0000083e       0x11 build/default/debug/_ext/1360937237/DS18B20.o
 .debug_str     0x0000084f        0xe build/default/debug/_ext/1360937237/contacts.o
 .debug_str     0x0000085d        0x0 build/default/debug/_ext/1360937237/moteurs.o
 .debug_str     0x0000085d        0x0 build/default/debug/_ext/1360937237/trap_security.o
 .debug_str     0x0000085d        0x0 build/default/debug/_ext/1360937237/main.o
 .debug_str     0x0000085d        0xc build/default/debug/_ext/1360937237/mainboard2.o
 .debug_str     0x00000869        0x0 d:/program files (x86)/microchip/xc32/v2.30/bin/bin/../../lib/gcc/pic32mx/4.8.3\libgcc.a(floatunsisf.o)
 .debug_str     0x00000869        0x0 d:/program files (x86)/microchip/xc32/v2.30/bin/bin/../../lib/gcc/pic32mx/4.8.3/../../../../pic32mx/lib\libpic32.a(default-bootstrap-exception-handler.o)
 .debug_str     0x00000869        0x0 d:/program files (x86)/microchip/xc32/v2.30/bin/bin/../../lib/gcc/pic32mx/4.8.3/../../../../pic32mx/lib\libpic32.a(default-on-reset.o)
 .debug_str     0x00000869        0x0 d:/program files (x86)/microchip/xc32/v2.30/bin/bin/../../lib/gcc/pic32mx/4.8.3/../../../../pic32mx/lib\libpic32.a(default-on-bootstrap.o)
 .debug_str     0x00000869        0x0 d:/program files (x86)/microchip/xc32/v2.30/bin/bin/../../lib/gcc/pic32mx/4.8.3/../../../../pic32mx/lib\libpic32.a(defaultinterrupt.o)
 .debug_str     0x00000869        0x0 d:/program files (x86)/microchip/xc32/v2.30/bin/bin/../../lib/gcc/pic32mx/4.8.3/../../../../pic32mx/lib\libc.a(memmove.o)
 .debug_str     0x00000869        0x0 d:/program files (x86)/microchip/xc32/v2.30/bin/bin/../../lib/gcc/pic32mx/4.8.3/../../../../pic32mx/lib\libc.a(vprintf.o)
 .debug_str     0x00000869        0x0 d:/program files (x86)/microchip/xc32/v2.30/bin/bin/../../lib/gcc/pic32mx/4.8.3/../../../../pic32mx/lib\libc.a(_iob.o)
 .debug_str     0x00000869        0x0 d:/program files (x86)/microchip/xc32/v2.30/bin/bin/../../lib/gcc/pic32mx/4.8.3/../../../../pic32mx/lib\libc.a(doprnt.o)
 .debug_str     0x00000869        0x0 d:/program files (x86)/microchip/xc32/v2.30/bin/bin/../../lib/gcc/pic32mx/4.8.3/../../../../pic32mx/lib\libc.a(_fputc_simple.o)
 .debug_str     0x00000869        0x0 d:/program files (x86)/microchip/xc32/v2.30/bin/bin/../../lib/gcc/pic32mx/4.8.3/../../../../pic32mx/lib\libc.a(ctype.o)
 .debug_str     0x00000869        0x0 d:/program files (x86)/microchip/xc32/v2.30/bin/bin/../../lib/gcc/pic32mx/4.8.3/../../../../pic32mx/lib\libc.a(ldpowers.o)
 .debug_str     0x00000869        0x0 d:/program files (x86)/microchip/xc32/v2.30/bin/bin/../../lib/gcc/pic32mx/4.8.3/../../../../pic32mx/lib\libc.a(_flsbuf_simple.o)
 .debug_str     0x00000869        0x0 d:/program files (x86)/microchip/xc32/v2.30/bin/bin/../../lib/gcc/pic32mx/4.8.3/../../../../pic32mx/lib\libe.a(_fixunsdfdi.o)
 .debug_str     0x00000869        0x0 d:/program files (x86)/microchip/xc32/v2.30/bin/bin/../../lib/gcc/pic32mx/4.8.3/../../../../pic32mx/lib\libe.a(_orderdf2.o)
 .debug_str     0x00000869        0x0 d:/program files (x86)/microchip/xc32/v2.30/bin/bin/../../lib/gcc/pic32mx/4.8.3/../../../../pic32mx/lib\libe.a(_fixdfdi.o)
 .debug_str     0x00000869        0x0 d:/program files (x86)/microchip/xc32/v2.30/bin/bin/../../lib/gcc/pic32mx/4.8.3\libgcc.a(_floatundidf.o)
 .debug_str     0x00000869        0x0 d:/program files (x86)/microchip/xc32/v2.30/bin/bin/../../lib/gcc/pic32mx/4.8.3\libgcc.a(_udivdi3.o)
 .debug_str     0x00000869        0x0 d:/program files (x86)/microchip/xc32/v2.30/bin/bin/../../lib/gcc/pic32mx/4.8.3\libgcc.a(_umoddi3.o)
 .debug_str     0x00000869        0x0 d:/program files (x86)/microchip/xc32/v2.30/bin/bin/../../lib/gcc/pic32mx/4.8.3\libgcc.a(floatunsidf.o)
 .debug_str     0x00000869        0x0 d:/program files (x86)/microchip/xc32/v2.30/bin/bin/../../lib/gcc/pic32mx/4.8.3/../../../../pic32mx/lib\libpic32.a(write.o)

.debug_loc      0x00000000    0x12386
 *(.debug_loc)
 .debug_loc     0x00000000      0xab8 build/default/debug/_ext/897820976/drv_at24.o
 .debug_loc     0x00000ab8      0x33a build/default/debug/_ext/60163342/plib_adc.o
 .debug_loc     0x00000df2       0x92 build/default/debug/_ext/60165520/plib_clk.o
 .debug_loc     0x00000e84      0x44c build/default/debug/_ext/1865200349/plib_evic.o
 .debug_loc     0x000012d0      0x285 build/default/debug/_ext/1865254177/plib_gpio.o
 .debug_loc     0x00001555      0x459 build/default/debug/_ext/60169480/plib_i2c1.o
 .debug_loc     0x000019ae      0x3c0 build/default/debug/_ext/60176403/plib_nvm.o
 .debug_loc     0x00001d6e       0xb4 build/default/debug/_ext/1865569570/plib_rcon.o
 .debug_loc     0x00001e22      0x8b2 build/default/debug/_ext/1865657120/plib_uart3.o
 .debug_loc     0x000026d4      0x8b2 build/default/debug/_ext/1865657120/plib_uart1.o
 .debug_loc     0x00002f86       0xcc build/default/debug/_ext/14461671/sys_dma.o
 .debug_loc     0x00003052      0x250 build/default/debug/_ext/1881668453/sys_int.o
 .debug_loc     0x000032a2       0x7b build/default/debug/_ext/1171490990/initialization.o
 .debug_loc     0x0000331d       0x88 build/default/debug/_ext/1171490990/interrupts.o
 .debug_loc     0x000033a5       0x2c build/default/debug/_ext/1171490990/exceptions.o
 .debug_loc     0x000033d1      0x1fe build/default/debug/_ext/1171490990/freertos_hooks.o
 .debug_loc     0x000035cf       0x8f build/default/debug/_ext/1171490990/tasks.o
 .debug_loc     0x0000365e      0x2a8 build/default/debug/_ext/1360937237/audits.o
 .debug_loc     0x00003906      0x318 build/default/debug/_ext/1360937237/parameters.o
 .debug_loc     0x00003c1e      0x10a build/default/debug/_ext/1360937237/dataCommun.o
 .debug_loc     0x00003d28      0x18a build/default/debug/_ext/1665200909/heap_1.o
 .debug_loc     0x00003eb2      0x389 build/default/debug/_ext/951553248/port.o
 .debug_loc     0x0000423b      0x25c build/default/debug/_ext/404212886/list.o
 .debug_loc     0x00004497     0x2661 build/default/debug/_ext/404212886/queue.o
 .debug_loc     0x00006af8     0x297d build/default/debug/_ext/404212886/FreeRTOS_tasks.o
 .debug_loc     0x00009475      0xfc0 build/default/debug/_ext/404212886/timers.o
 .debug_loc     0x0000a435      0xdb2 build/default/debug/_ext/404212886/event_groups.o
 .debug_loc     0x0000b1e7     0x1bf2 build/default/debug/_ext/404212886/stream_buffer.o
 .debug_loc     0x0000cdd9      0x89b build/default/debug/_ext/659830161/MDB.o
 .debug_loc     0x0000d674      0x7c0 build/default/debug/_ext/659830161/MDB_CG.o
 .debug_loc     0x0000de34      0x537 build/default/debug/_ext/659830161/MDB_BV.o
 .debug_loc     0x0000e36b      0x8c9 build/default/debug/_ext/1529399856/osal_freertos.o
 .debug_loc     0x0000ec34      0xacb build/default/debug/_ext/1360937237/hd44780.o
 .debug_loc     0x0000f6ff       0x44 build/default/debug/_ext/1360937237/delay_us.o
 .debug_loc     0x0000f743      0x1bc build/default/debug/_ext/1360937237/leds.o
 .debug_loc     0x0000f8ff      0x6d7 build/default/debug/_ext/1360937237/DS18B20.o
 .debug_loc     0x0000ffd6      0x442 build/default/debug/_ext/1360937237/contacts.o
 .debug_loc     0x00010418      0x380 build/default/debug/_ext/1360937237/moteurs.o
 .debug_loc     0x00010798      0x18e build/default/debug/_ext/1360937237/trap_security.o
 .debug_loc     0x00010926       0x2c build/default/debug/_ext/1360937237/main.o
 .debug_loc     0x00010952      0x3c8 build/default/debug/_ext/1360937237/mainboard2.o
 .debug_loc     0x00010d1a       0x74 d:/program files (x86)/microchip/xc32/v2.30/bin/bin/../../lib/gcc/pic32mx/4.8.3\libgcc.a(floatunsisf.o)
 .debug_loc     0x00010d8e       0x2c d:/program files (x86)/microchip/xc32/v2.30/bin/bin/../../lib/gcc/pic32mx/4.8.3/../../../../pic32mx/lib\libpic32.a(default-bootstrap-exception-handler.o)
 .debug_loc     0x00010dba       0x2c d:/program files (x86)/microchip/xc32/v2.30/bin/bin/../../lib/gcc/pic32mx/4.8.3/../../../../pic32mx/lib\libe.a(_fixunsdfdi.o)
 .debug_loc     0x00010de6       0x41 d:/program files (x86)/microchip/xc32/v2.30/bin/bin/../../lib/gcc/pic32mx/4.8.3\libgcc.a(_floatundidf.o)
 .debug_loc     0x00010e27      0xa6a d:/program files (x86)/microchip/xc32/v2.30/bin/bin/../../lib/gcc/pic32mx/4.8.3\libgcc.a(_udivdi3.o)
 .debug_loc     0x00011891      0xa3d d:/program files (x86)/microchip/xc32/v2.30/bin/bin/../../lib/gcc/pic32mx/4.8.3\libgcc.a(_umoddi3.o)
 .debug_loc     0x000122ce       0x80 d:/program files (x86)/microchip/xc32/v2.30/bin/bin/../../lib/gcc/pic32mx/4.8.3\libgcc.a(floatunsidf.o)
 .debug_loc     0x0001234e       0x38 d:/program files (x86)/microchip/xc32/v2.30/bin/bin/../../lib/gcc/pic32mx/4.8.3/../../../../pic32mx/lib\libpic32.a(write.o)

.debug_macinfo
 *(.debug_macinfo)

.debug_weaknames
 *(.debug_weaknames)

.debug_funcnames
 *(.debug_funcnames)

.debug_typenames
 *(.debug_typenames)

.debug_varnames
 *(.debug_varnames)

.debug_pubtypes
 *(.debug_pubtypes)

.debug_ranges   0x00000000     0x1170
 *(.debug_ranges)
 .debug_ranges  0x00000000       0x10 d:/program files (x86)/microchip/xc32/v2.30/bin/bin/../../lib/gcc/pic32mx/4.8.3/../../../../pic32mx/lib\software-debug-break.o
 .debug_ranges  0x00000010       0x78 build/default/debug/_ext/897820976/drv_at24.o
 .debug_ranges  0x00000088       0x60 build/default/debug/_ext/60163342/plib_adc.o
 .debug_ranges  0x000000e8       0x10 build/default/debug/_ext/60165520/plib_clk.o
 .debug_ranges  0x000000f8       0x40 build/default/debug/_ext/1865200349/plib_evic.o
 .debug_ranges  0x00000138       0x50 build/default/debug/_ext/1865254177/plib_gpio.o
 .debug_ranges  0x00000188       0x68 build/default/debug/_ext/60169480/plib_i2c1.o
 .debug_ranges  0x000001f0       0x40 build/default/debug/_ext/60176403/plib_nvm.o
 .debug_ranges  0x00000230       0x20 build/default/debug/_ext/1865569570/plib_rcon.o
 .debug_ranges  0x00000250       0x60 build/default/debug/_ext/1865657120/plib_uart3.o
 .debug_ranges  0x000002b0       0x60 build/default/debug/_ext/1865657120/plib_uart1.o
 .debug_ranges  0x00000310       0x20 build/default/debug/_ext/14461671/sys_dma.o
 .debug_ranges  0x00000330       0x30 build/default/debug/_ext/1881668453/sys_int.o
 .debug_ranges  0x00000360       0x10 build/default/debug/_ext/1171490990/initialization.o
 .debug_ranges  0x00000370       0x18 build/default/debug/_ext/1171490990/interrupts.o
 .debug_ranges  0x00000388       0x30 build/default/debug/_ext/1171490990/interrupts_a.o
 .debug_ranges  0x000003b8       0x10 build/default/debug/_ext/1171490990/exceptions.o
 .debug_ranges  0x000003c8       0x30 build/default/debug/_ext/1171490990/freertos_hooks.o
 .debug_ranges  0x000003f8       0x18 build/default/debug/_ext/1171490990/tasks.o
 .debug_ranges  0x00000410       0x40 build/default/debug/_ext/1360937237/audits.o
 .debug_ranges  0x00000450       0x60 build/default/debug/_ext/1360937237/parameters.o
 .debug_ranges  0x000004b0       0x20 build/default/debug/_ext/1360937237/dataCommun.o
 .debug_ranges  0x000004d0       0x28 build/default/debug/_ext/1665200909/heap_1.o
 .debug_ranges  0x000004f8       0x48 build/default/debug/_ext/951553248/port.o
 .debug_ranges  0x00000540       0x30 build/default/debug/_ext/404212886/list.o
 .debug_ranges  0x00000570      0x128 build/default/debug/_ext/404212886/queue.o
 .debug_ranges  0x00000698      0x1a0 build/default/debug/_ext/404212886/FreeRTOS_tasks.o
 .debug_ranges  0x00000838       0xb0 build/default/debug/_ext/404212886/timers.o
 .debug_ranges  0x000008e8       0x58 build/default/debug/_ext/404212886/event_groups.o
 .debug_ranges  0x00000940       0xb0 build/default/debug/_ext/404212886/stream_buffer.o
 .debug_ranges  0x000009f0       0x90 build/default/debug/_ext/659830161/MDB.o
 .debug_ranges  0x00000a80       0xa8 build/default/debug/_ext/659830161/MDB_CG.o
 .debug_ranges  0x00000b28       0x78 build/default/debug/_ext/659830161/MDB_BV.o
 .debug_ranges  0x00000ba0       0x70 build/default/debug/_ext/1529399856/osal_freertos.o
 .debug_ranges  0x00000c10       0xd0 build/default/debug/_ext/1360937237/hd44780.o
 .debug_ranges  0x00000ce0       0x10 build/default/debug/_ext/1360937237/delay_us.o
 .debug_ranges  0x00000cf0       0x30 build/default/debug/_ext/1360937237/leds.o
 .debug_ranges  0x00000d20       0x68 build/default/debug/_ext/1360937237/DS18B20.o
 .debug_ranges  0x00000d88       0x70 build/default/debug/_ext/1360937237/contacts.o
 .debug_ranges  0x00000df8       0x58 build/default/debug/_ext/1360937237/moteurs.o
 .debug_ranges  0x00000e50       0x28 build/default/debug/_ext/1360937237/trap_security.o
 .debug_ranges  0x00000e78       0x10 build/default/debug/_ext/1360937237/main.o
 .debug_ranges  0x00000e88       0x60 build/default/debug/_ext/1360937237/mainboard2.o
 .debug_ranges  0x00000ee8       0x38 C:\Users\ADMINI~1\AppData\Local\Temp\cc3xLHuC.o
 .debug_ranges  0x00000f20       0x10 d:/program files (x86)/microchip/xc32/v2.30/bin/bin/../../lib/gcc/pic32mx/4.8.3/../../../../pic32mx/lib\libpic32.a(default-bootstrap-exception-handler.o)
 .debug_ranges  0x00000f30       0x10 d:/program files (x86)/microchip/xc32/v2.30/bin/bin/../../lib/gcc/pic32mx/4.8.3/../../../../pic32mx/lib\libpic32.a(default-on-reset.o)
 .debug_ranges  0x00000f40       0x10 d:/program files (x86)/microchip/xc32/v2.30/bin/bin/../../lib/gcc/pic32mx/4.8.3/../../../../pic32mx/lib\libpic32.a(default-on-bootstrap.o)
 .debug_ranges  0x00000f50       0x10 d:/program files (x86)/microchip/xc32/v2.30/bin/bin/../../lib/gcc/pic32mx/4.8.3/../../../../pic32mx/lib\libpic32.a(defaultinterrupt.o)
 .debug_ranges  0x00000f60       0x10 d:/program files (x86)/microchip/xc32/v2.30/bin/bin/../../lib/gcc/pic32mx/4.8.3/../../../../pic32mx/lib\libc.a(memmove.o)
 .debug_ranges  0x00000f70       0x10 d:/program files (x86)/microchip/xc32/v2.30/bin/bin/../../lib/gcc/pic32mx/4.8.3/../../../../pic32mx/lib\libc.a(vprintf.o)
 .debug_ranges  0x00000f80       0x20 d:/program files (x86)/microchip/xc32/v2.30/bin/bin/../../lib/gcc/pic32mx/4.8.3/../../../../pic32mx/lib\libc.a(doprnt.o)
 .debug_ranges  0x00000fa0       0x10 d:/program files (x86)/microchip/xc32/v2.30/bin/bin/../../lib/gcc/pic32mx/4.8.3/../../../../pic32mx/lib\libc.a(_fputc_simple.o)
 .debug_ranges  0x00000fb0       0x10 d:/program files (x86)/microchip/xc32/v2.30/bin/bin/../../lib/gcc/pic32mx/4.8.3/../../../../pic32mx/lib\libc.a(_flsbuf_simple.o)
 .debug_ranges  0x00000fc0       0x10 d:/program files (x86)/microchip/xc32/v2.30/bin/bin/../../lib/gcc/pic32mx/4.8.3/../../../../pic32mx/lib\libe.a(_fixunsdfdi.o)
 .debug_ranges  0x00000fd0       0x10 d:/program files (x86)/microchip/xc32/v2.30/bin/bin/../../lib/gcc/pic32mx/4.8.3/../../../../pic32mx/lib\libe.a(_orderdf2.o)
 .debug_ranges  0x00000fe0       0x10 d:/program files (x86)/microchip/xc32/v2.30/bin/bin/../../lib/gcc/pic32mx/4.8.3/../../../../pic32mx/lib\libe.a(_fixdfdi.o)
 .debug_ranges  0x00000ff0       0x98 d:/program files (x86)/microchip/xc32/v2.30/bin/bin/../../lib/gcc/pic32mx/4.8.3\libgcc.a(_udivdi3.o)
 .debug_ranges  0x00001088       0xd8 d:/program files (x86)/microchip/xc32/v2.30/bin/bin/../../lib/gcc/pic32mx/4.8.3\libgcc.a(_umoddi3.o)
 .debug_ranges  0x00001160       0x10 d:/program files (x86)/microchip/xc32/v2.30/bin/bin/../../lib/gcc/pic32mx/4.8.3/../../../../pic32mx/lib\libpic32.a(write.o)

.gnu.attributes
                0x00000000       0x10
 *(.gnu.attributes)
 .gnu.attributes
                0x00000000       0x10 d:/program files (x86)/microchip/xc32/v2.30/bin/bin/../../lib/gcc/pic32mx/4.8.3/../../../../pic32mx/lib\software-debug-break.o
 .gnu.attributes
                0x00000010       0x10 build/default/debug/_ext/897820976/drv_at24.o
 .gnu.attributes
                0x00000020       0x10 build/default/debug/_ext/60163342/plib_adc.o
 .gnu.attributes
                0x00000030       0x10 build/default/debug/_ext/60165520/plib_clk.o
 .gnu.attributes
                0x00000040       0x10 build/default/debug/_ext/1865200349/plib_evic.o
 .gnu.attributes
                0x00000050       0x10 build/default/debug/_ext/1865254177/plib_gpio.o
 .gnu.attributes
                0x00000060       0x10 build/default/debug/_ext/60169480/plib_i2c1.o
 .gnu.attributes
                0x00000070       0x10 build/default/debug/_ext/60176403/plib_nvm.o
 .gnu.attributes
                0x00000080       0x10 build/default/debug/_ext/1865569570/plib_rcon.o
 .gnu.attributes
                0x00000090       0x10 build/default/debug/_ext/1865657120/plib_uart3.o
 .gnu.attributes
                0x000000a0       0x10 build/default/debug/_ext/1865657120/plib_uart1.o
 .gnu.attributes
                0x000000b0       0x10 build/default/debug/_ext/14461671/sys_dma.o
 .gnu.attributes
                0x000000c0       0x10 build/default/debug/_ext/1881668453/sys_int.o
 .gnu.attributes
                0x000000d0       0x10 build/default/debug/_ext/1171490990/initialization.o
 .gnu.attributes
                0x000000e0       0x10 build/default/debug/_ext/1171490990/interrupts.o
 .gnu.attributes
                0x000000f0       0x10 build/default/debug/_ext/1171490990/exceptions.o
 .gnu.attributes
                0x00000100       0x10 build/default/debug/_ext/1171490990/freertos_hooks.o
 .gnu.attributes
                0x00000110       0x10 build/default/debug/_ext/1171490990/tasks.o
 .gnu.attributes
                0x00000120       0x10 build/default/debug/_ext/1360937237/audits.o
 .gnu.attributes
                0x00000130       0x10 build/default/debug/_ext/1360937237/parameters.o
 .gnu.attributes
                0x00000140       0x10 build/default/debug/_ext/1360937237/dataCommun.o
 .gnu.attributes
                0x00000150       0x10 build/default/debug/_ext/1665200909/heap_1.o
 .gnu.attributes
                0x00000160       0x10 build/default/debug/_ext/951553248/port.o
 .gnu.attributes
                0x00000170       0x10 build/default/debug/_ext/404212886/croutine.o
 .gnu.attributes
                0x00000180       0x10 build/default/debug/_ext/404212886/list.o
 .gnu.attributes
                0x00000190       0x10 build/default/debug/_ext/404212886/queue.o
 .gnu.attributes
                0x000001a0       0x10 build/default/debug/_ext/404212886/FreeRTOS_tasks.o
 .gnu.attributes
                0x000001b0       0x10 build/default/debug/_ext/404212886/timers.o
 .gnu.attributes
                0x000001c0       0x10 build/default/debug/_ext/404212886/event_groups.o
 .gnu.attributes
                0x000001d0       0x10 build/default/debug/_ext/404212886/stream_buffer.o
 .gnu.attributes
                0x000001e0       0x10 build/default/debug/_ext/659830161/MDB.o
 .gnu.attributes
                0x000001f0       0x10 build/default/debug/_ext/659830161/MDB_CG.o
 .gnu.attributes
                0x00000200       0x10 build/default/debug/_ext/659830161/MDB_BV.o
 .gnu.attributes
                0x00000210       0x10 build/default/debug/_ext/1529399856/osal_freertos.o
 .gnu.attributes
                0x00000220       0x10 build/default/debug/_ext/1360937237/hd44780.o
 .gnu.attributes
                0x00000230       0x10 build/default/debug/_ext/1360937237/delay_us.o
 .gnu.attributes
                0x00000240       0x10 build/default/debug/_ext/1360937237/leds.o
 .gnu.attributes
                0x00000250       0x10 build/default/debug/_ext/1360937237/DS18B20.o
 .gnu.attributes
                0x00000260       0x10 build/default/debug/_ext/1360937237/contacts.o
 .gnu.attributes
                0x00000270       0x10 build/default/debug/_ext/1360937237/moteurs.o
 .gnu.attributes
                0x00000280       0x10 build/default/debug/_ext/1360937237/trap_security.o
 .gnu.attributes
                0x00000290       0x10 build/default/debug/_ext/1360937237/main.o
 .gnu.attributes
                0x000002a0       0x10 build/default/debug/_ext/1360937237/mainboard2.o
 .gnu.attributes
                0x000002b0       0x10 d:/program files (x86)/microchip/xc32/v2.30/bin/bin/../../lib/gcc/pic32mx/4.8.3\libgcc.a(floatunsisf.o)
 .gnu.attributes
                0x000002c0       0x10 d:/program files (x86)/microchip/xc32/v2.30/bin/bin/../../lib/gcc/pic32mx/4.8.3/../../../../pic32mx/lib\libpic32.a(default-bootstrap-exception-handler.o)
 .gnu.attributes
                0x000002d0       0x10 d:/program files (x86)/microchip/xc32/v2.30/bin/bin/../../lib/gcc/pic32mx/4.8.3/../../../../pic32mx/lib\libpic32.a(default-on-reset.o)
 .gnu.attributes
                0x000002e0       0x10 d:/program files (x86)/microchip/xc32/v2.30/bin/bin/../../lib/gcc/pic32mx/4.8.3/../../../../pic32mx/lib\libpic32.a(default-on-bootstrap.o)
 .gnu.attributes
                0x000002f0       0x10 d:/program files (x86)/microchip/xc32/v2.30/bin/bin/../../lib/gcc/pic32mx/4.8.3/../../../../pic32mx/lib\libpic32.a(defaultinterrupt.o)
 .gnu.attributes
                0x00000300       0x10 d:/program files (x86)/microchip/xc32/v2.30/bin/bin/../../lib/gcc/pic32mx/4.8.3/../../../../pic32mx/lib\libc.a(memmove.o)
 .gnu.attributes
                0x00000310       0x10 d:/program files (x86)/microchip/xc32/v2.30/bin/bin/../../lib/gcc/pic32mx/4.8.3/../../../../pic32mx/lib\libc.a(vprintf.o)
 .gnu.attributes
                0x00000320       0x10 d:/program files (x86)/microchip/xc32/v2.30/bin/bin/../../lib/gcc/pic32mx/4.8.3/../../../../pic32mx/lib\libc.a(_iob.o)
 .gnu.attributes
                0x00000330       0x10 d:/program files (x86)/microchip/xc32/v2.30/bin/bin/../../lib/gcc/pic32mx/4.8.3/../../../../pic32mx/lib\libc.a(doprnt.o)
 .gnu.attributes
                0x00000340       0x10 d:/program files (x86)/microchip/xc32/v2.30/bin/bin/../../lib/gcc/pic32mx/4.8.3/../../../../pic32mx/lib\libc.a(_fputc_simple.o)
 .gnu.attributes
                0x00000350       0x10 d:/program files (x86)/microchip/xc32/v2.30/bin/bin/../../lib/gcc/pic32mx/4.8.3/../../../../pic32mx/lib\libc.a(ctype.o)
 .gnu.attributes
                0x00000360       0x10 d:/program files (x86)/microchip/xc32/v2.30/bin/bin/../../lib/gcc/pic32mx/4.8.3/../../../../pic32mx/lib\libc.a(ldpowers.o)
 .gnu.attributes
                0x00000370       0x10 d:/program files (x86)/microchip/xc32/v2.30/bin/bin/../../lib/gcc/pic32mx/4.8.3/../../../../pic32mx/lib\libc.a(_flsbuf_simple.o)
 .gnu.attributes
                0x00000380       0x10 d:/program files (x86)/microchip/xc32/v2.30/bin/bin/../../lib/gcc/pic32mx/4.8.3/../../../../pic32mx/lib\libe.a(_fixunsdfdi.o)
 .gnu.attributes
                0x00000390       0x10 d:/program files (x86)/microchip/xc32/v2.30/bin/bin/../../lib/gcc/pic32mx/4.8.3/../../../../pic32mx/lib\libe.a(_orderdf2.o)
 .gnu.attributes
                0x000003a0       0x10 d:/program files (x86)/microchip/xc32/v2.30/bin/bin/../../lib/gcc/pic32mx/4.8.3/../../../../pic32mx/lib\libe.a(_fixdfdi.o)
 .gnu.attributes
                0x000003b0       0x10 d:/program files (x86)/microchip/xc32/v2.30/bin/bin/../../lib/gcc/pic32mx/4.8.3\libgcc.a(_floatundidf.o)
 .gnu.attributes
                0x000003c0       0x10 d:/program files (x86)/microchip/xc32/v2.30/bin/bin/../../lib/gcc/pic32mx/4.8.3\libgcc.a(_udivdi3.o)
 .gnu.attributes
                0x000003d0       0x10 d:/program files (x86)/microchip/xc32/v2.30/bin/bin/../../lib/gcc/pic32mx/4.8.3\libgcc.a(_umoddi3.o)
 .gnu.attributes
                0x000003e0       0x10 d:/program files (x86)/microchip/xc32/v2.30/bin/bin/../../lib/gcc/pic32mx/4.8.3\libgcc.a(floatunsidf.o)
 .gnu.attributes
                0x000003f0       0x10 d:/program files (x86)/microchip/xc32/v2.30/bin/bin/../../lib/gcc/pic32mx/4.8.3/../../../../pic32mx/lib\libpic32.a(write.o)
LOAD d:/program files (x86)/microchip/xc32/v2.30/bin/bin/../../lib/gcc/pic32mx/4.8.3\libgcc.a
START GROUP
LOAD d:/program files (x86)/microchip/xc32/v2.30/bin/bin/../../lib/gcc/pic32mx/4.8.3/../../../../pic32mx/lib\libpic32.a
LOAD d:/program files (x86)/microchip/xc32/v2.30/bin/bin/../../lib/gcc/pic32mx/4.8.3/../../../../pic32mx/lib\libdebug.a
LOAD d:/program files (x86)/microchip/xc32/v2.30/bin/bin/../../lib/gcc/pic32mx/4.8.3/../../../../pic32mx/lib\libpic32.a
LOAD d:/program files (x86)/microchip/xc32/v2.30/bin/bin/../../lib/gcc/pic32mx/4.8.3/../../../../pic32mx/lib\libc.a
LOAD d:/program files (x86)/microchip/xc32/v2.30/bin/bin/../../lib/gcc/pic32mx/4.8.3/../../../../pic32mx/lib\libc.a
LOAD d:/program files (x86)/microchip/xc32/v2.30/bin/bin/../../lib/gcc/pic32mx/4.8.3/../../../../pic32mx/lib\libm.a
LOAD d:/program files (x86)/microchip/xc32/v2.30/bin/bin/../../lib/gcc/pic32mx/4.8.3/../../../../pic32mx/lib\libe.a
LOAD d:/program files (x86)/microchip/xc32/v2.30/bin/bin/../../lib/gcc/pic32mx/4.8.3/../../../../pic32mx/lib\libdsp.a
LOAD d:/program files (x86)/microchip/xc32/v2.30/bin/bin/../../lib/gcc/pic32mx/4.8.3\libgcc.a
LOAD d:/program files (x86)/microchip/xc32/v2.30/bin/bin/../../lib/gcc/pic32mx/4.8.3/../../../../pic32mx/lib\libpic32.a
END GROUP
LOAD d:/program files (x86)/microchip/xc32/v2.30/bin/bin/../../lib/gcc/pic32mx/4.8.3\libgcc.a
OUTPUT(dist/default/debug/MainBoard2.X.debug.elf elf32-tradlittlemips)
LOAD stack
LOAD data_init

.reginfo        0x00000000       0x18
 .reginfo       0x00000000       0x18 d:/program files (x86)/microchip/xc32/v2.30/bin/bin/../../lib/gcc/pic32mx/4.8.3/../../../../pic32mx/lib\software-debug-break.o

.stack          0xa0015048      0x400
 .stack         0xa0015048      0x400 stack

.bss            0xa0000558    0x14468
 .bss           0xa0000558    0x13c68 build/default/debug/_ext/1665200909/heap_1.o
 .bss           0xa00141c0      0x800 build/default/debug/_ext/951553248/port.o
                0xa00141c0                xISRStack

.bss            0xa00149c0      0x1a4
 .bss           0xa00149c0      0x1a4 build/default/debug/_ext/1360937237/parameters.o

.data           0xa0014b64       0xa4
 .data          0xa0014b64       0xa4 d:/program files (x86)/microchip/xc32/v2.30/bin/bin/../../lib/gcc/pic32mx/4.8.3/../../../../pic32mx/lib\libc.a(_iob.o)
                0xa0014b64                _Files
                0xa0014b68                _iob

.bss            0xa0014c08      0x11c
 .bss           0xa0014c08       0x9c build/default/debug/_ext/1360937237/audits.o
 .bss           0xa0014ca4       0x80 build/default/debug/_ext/897820976/drv_at24.o

.data           0xa0014d24       0x4c
 .data          0xa0014d24       0x4c build/default/debug/_ext/1171490990/exceptions.o

.bss            0xa0014d70       0x6c
 .bss           0xa0014d70       0x44 d:/program files (x86)/microchip/xc32/v2.30/bin/bin/../../lib/gcc/pic32mx/4.8.3/../../../../pic32mx/lib\libc.a(_iob.o)
                0xa0014d70                _sobuf
                0xa0014d90                _sibuf
                0xa0014db0                _outdone
 .bss           0xa0014db4       0x28 build/default/debug/_ext/60169480/plib_i2c1.o

.bss            0xa0014ddc       0x40
 .bss           0xa0014ddc       0x28 build/default/debug/_ext/404212886/timers.o
 .bss           0xa0014e04       0x18 build/default/debug/_ext/1360937237/hd44780.o

.bss            0xa0014e1c        0xc
 .bss           0xa0014e1c        0xc build/default/debug/_ext/1360937237/mainboard2.o

_079835a05e27f1e2
                0x9d070000     0x1000
 _079835a05e27f1e2
                0x9d070000     0x1000 build/default/debug/_ext/1360937237/parameters.o
                0x9d070000                gNVMFlashReserveArea

.text.vfprintf  0x9d071000     0x1ef8
 .text.vfprintf
                0x9d071000     0x1ef8 d:/program files (x86)/microchip/xc32/v2.30/bin/bin/../../lib/gcc/pic32mx/4.8.3/../../../../pic32mx/lib\libc.a(doprnt.o)
                0x9d071000                vfprintf

.text.vTaskCG   0x9d072ef8      0xc08
 .text.vTaskCG  0x9d072ef8      0xc08 build/default/debug/_ext/659830161/MDB_CG.o
                0x9d072ef8                vTaskCG

.text.MAINBOARD2_Tasks
                0x9d073b00      0x970
 .text.MAINBOARD2_Tasks
                0x9d073b00      0x970 build/default/debug/_ext/1360937237/mainboard2.o
                0x9d073b00                MAINBOARD2_Tasks

.text.vTaskBV   0x9d074470      0x840
 .text.vTaskBV  0x9d074470      0x840 build/default/debug/_ext/659830161/MDB_BV.o
                0x9d074470                vTaskBV

.text.I2C1_TransferSM
                0x9d074cb0      0x6d0
 .text.I2C1_TransferSM
                0x9d074cb0      0x6d0 build/default/debug/_ext/60169480/plib_i2c1.o

.text.byMDBSendCommand
                0x9d075380      0x5fc
 .text.byMDBSendCommand
                0x9d075380      0x5fc build/default/debug/_ext/659830161/MDB.o
                0x9d075380                byMDBSendCommand

.text.vTaskAudit
                0x9d07597c      0x594
 .text.vTaskAudit
                0x9d07597c      0x594 build/default/debug/_ext/1360937237/audits.o

.text.dp32mul   0x9d075f10      0x4b8
 .text.dp32mul  0x9d075f10      0x4b8 d:/program files (x86)/microchip/xc32/v2.30/bin/bin/../../lib/gcc/pic32mx/4.8.3/../../../../pic32mx/lib\libm.a(dp32div.o)
                0x9d075f10                __divdf3
                0x9d075f10                dpdiv

.text.vTaskMoteur
                0x9d0763c8      0x474
 .text.vTaskMoteur
                0x9d0763c8      0x474 build/default/debug/_ext/1360937237/moteurs.o

.text           0x9d07683c      0x8bc
 .text          0x9d07683c      0x464 d:/program files (x86)/microchip/xc32/v2.30/bin/bin/../../lib/gcc/pic32mx/4.8.3\libgcc.a(_umoddi3.o)
                0x9d07683c                __umoddi3
 .text          0x9d076ca0      0x458 d:/program files (x86)/microchip/xc32/v2.30/bin/bin/../../lib/gcc/pic32mx/4.8.3\libgcc.a(_udivdi3.o)
                0x9d076ca0                __udivdi3

.text           0x9d0770f8      0x454
 .text          0x9d0770f8      0x454 build/default/debug/_ext/951553248/port_asm.o
                0x9d0770f8                vPortTickInterruptHandler
                0x9d0772a4                vPortStartFirstTask
                0x9d07736c                vPortYieldISR

.text.dp32subadd
                0x9d07754c      0x430
 .text.dp32subadd
                0x9d07754c      0x430 d:/program files (x86)/microchip/xc32/v2.30/bin/bin/../../lib/gcc/pic32mx/4.8.3/../../../../pic32mx/lib\libm.a(dp32subadd.o)
                0x9d07754c                __subdf3
                0x9d07754c                dpsub
                0x9d077554                dpadd
                0x9d077554                __adddf3

.text.vTaskKeyboard
                0x9d07797c      0x3b8
 .text.vTaskKeyboard
                0x9d07797c      0x3b8 build/default/debug/_ext/1360937237/contacts.o

.text.dp32mul   0x9d077d34      0x32c
 .text.dp32mul  0x9d077d34      0x32c d:/program files (x86)/microchip/xc32/v2.30/bin/bin/../../lib/gcc/pic32mx/4.8.3/../../../../pic32mx/lib\libm.a(dp32mul.o)
                0x9d077d34                __muldf3
                0x9d077d34                dpmul

.text.xQueueGenericSend
                0x9d078060      0x324
 .text.xQueueGenericSend
                0x9d078060      0x324 build/default/debug/_ext/404212886/queue.o
                0x9d078060                xQueueGenericSend

.text.xQueueSemaphoreTake
                0x9d078384      0x300
 .text.xQueueSemaphoreTake
                0x9d078384      0x300 build/default/debug/_ext/404212886/queue.o
                0x9d078384                xQueueSemaphoreTake

.text._DRV_AT24_Write
                0x9d078684      0x2d8
 .text._DRV_AT24_Write
                0x9d078684      0x2d8 build/default/debug/_ext/897820976/drv_at24.o

.dinit          0x9d07895c      0x290
 .dinit         0x9d07895c      0x290 data_init

.text.vTaskLed  0x9d078bec      0x288
 .text.vTaskLed
                0x9d078bec      0x288 build/default/debug/_ext/1360937237/leds.o

.text.fpsubadd  0x9d078e74      0x278
 .text.fpsubadd
                0x9d078e74      0x278 d:/program files (x86)/microchip/xc32/v2.30/bin/bin/../../lib/gcc/pic32mx/4.8.3/../../../../pic32mx/lib\libm.a(fp32subadd.o)
                0x9d078e74                fpsub
                0x9d078e74                __subsf3
                0x9d078e7c                __addsf3
                0x9d078e7c                fpadd

.text.xQueueReceive
                0x9d0790ec      0x270
 .text.xQueueReceive
                0x9d0790ec      0x270 build/default/debug/_ext/404212886/queue.o
                0x9d0790ec                xQueueReceive

.text.prvProcessReceivedCommands
                0x9d07935c      0x260
 .text.prvProcessReceivedCommands
                0x9d07935c      0x260 build/default/debug/_ext/404212886/timers.o

.text.DRV_AT24_Read
                0x9d0795bc      0x250
 .text.DRV_AT24_Read
                0x9d0795bc      0x250 build/default/debug/_ext/897820976/drv_at24.o
                0x9d0795bc                DRV_AT24_Read

.text.vTaskMDB  0x9d07980c      0x250
 .text.vTaskMDB
                0x9d07980c      0x250 build/default/debug/_ext/659830161/MDB.o

.text.scale     0x9d079a5c      0x23c
 .text.scale    0x9d079a5c      0x23c d:/program files (x86)/microchip/xc32/v2.30/bin/bin/../../lib/gcc/pic32mx/4.8.3/../../../../pic32mx/lib\libc.a(doprnt.o)

.text.vParamSendToPC
                0x9d079c98      0x234
 .text.vParamSendToPC
                0x9d079c98      0x234 build/default/debug/_ext/1360937237/parameters.o
                0x9d079c98                vParamSendToPC

.text.fp32div   0x9d079ecc      0x230
 .text.fp32div  0x9d079ecc      0x230 d:/program files (x86)/microchip/xc32/v2.30/bin/bin/../../lib/gcc/pic32mx/4.8.3/../../../../pic32mx/lib\libm.a(fp32div.o)
                0x9d079ecc                fpdiv
                0x9d079ecc                __divsf3

.text.xTaskGenericNotify
                0x9d07a0fc      0x218
 .text.xTaskGenericNotify
                0x9d07a0fc      0x218 build/default/debug/_ext/404212886/FreeRTOS_tasks.o
                0x9d07a0fc                xTaskGenericNotify

.text.xTaskIncrementTick
                0x9d07a314      0x214
 .text.xTaskIncrementTick
                0x9d07a314      0x214 build/default/debug/_ext/404212886/FreeRTOS_tasks.o
                0x9d07a314                xTaskIncrementTick

.text.GPIO_Initialize
                0x9d07a528      0x200
 .text.GPIO_Initialize
                0x9d07a528      0x200 build/default/debug/_ext/1865254177/plib_gpio.o
                0x9d07a528                GPIO_Initialize

.text.prvInitialiseNewTask
                0x9d07a728      0x1f4
 .text.prvInitialiseNewTask
                0x9d07a728      0x1f4 build/default/debug/_ext/404212886/FreeRTOS_tasks.o
                0x9d07a728                prvInitialiseNewTask

.text.vTaskTemperature
                0x9d07a91c      0x1ec
 .text.vTaskTemperature
                0x9d07a91c      0x1ec build/default/debug/_ext/1360937237/DS18B20.o

.text.xTaskPriorityInherit
                0x9d07ab08      0x1d4
 .text.xTaskPriorityInherit
                0x9d07ab08      0x1d4 build/default/debug/_ext/404212886/FreeRTOS_tasks.o
                0x9d07ab08                xTaskPriorityInherit

.text.vTaskPriorityDisinheritAfterTimeout
                0x9d07acdc      0x1cc
 .text.vTaskPriorityDisinheritAfterTimeout
                0x9d07acdc      0x1cc build/default/debug/_ext/404212886/FreeRTOS_tasks.o
                0x9d07acdc                vTaskPriorityDisinheritAfterTimeout

.text.fround    0x9d07aea8      0x1cc
 .text.fround   0x9d07aea8      0x1cc d:/program files (x86)/microchip/xc32/v2.30/bin/bin/../../lib/gcc/pic32mx/4.8.3/../../../../pic32mx/lib\libc.a(doprnt.o)

.text.prvCopyDataToQueue
                0x9d07b074      0x1c8
 .text.prvCopyDataToQueue
                0x9d07b074      0x1c8 build/default/debug/_ext/404212886/queue.o

.text._DRV_AT24_Handler
                0x9d07b23c      0x1c4
 .text._DRV_AT24_Handler
                0x9d07b23c      0x1c4 build/default/debug/_ext/897820976/drv_at24.o

.text.xTaskResumeAll
                0x9d07b400      0x1c4
 .text.xTaskResumeAll
                0x9d07b400      0x1c4 build/default/debug/_ext/404212886/FreeRTOS_tasks.o
                0x9d07b400                xTaskResumeAll

.text.vKeyboardInit
                0x9d07b5c4      0x1c0
 .text.vKeyboardInit
                0x9d07b5c4      0x1c0 build/default/debug/_ext/1360937237/contacts.o
                0x9d07b5c4                vKeyboardInit

.text.fp32mul   0x9d07b784      0x1bc
 .text.fp32mul  0x9d07b784      0x1bc d:/program files (x86)/microchip/xc32/v2.30/bin/bin/../../lib/gcc/pic32mx/4.8.3/../../../../pic32mx/lib\libm.a(fp32mul.o)
                0x9d07b784                fpmul
                0x9d07b784                __mulsf3

.ADC_Handler_vector_text
                0x9d07b940      0x1b4
 .ADC_Handler_vector_text
                0x9d07b940      0x1b4 build/default/debug/_ext/1171490990/interrupts_a.o

.I2C_1_Handler_vector_text
                0x9d07baf4      0x1b4
 .I2C_1_Handler_vector_text
                0x9d07baf4      0x1b4 build/default/debug/_ext/1171490990/interrupts_a.o

.text.vTaskSuspend
                0x9d07bca8      0x1b4
 .text.vTaskSuspend
                0x9d07bca8      0x1b4 build/default/debug/_ext/404212886/FreeRTOS_tasks.o
                0x9d07bca8                vTaskSuspend

.text.vTaskPcComm
                0x9d07be5c      0x1a4
 .text.vTaskPcComm
                0x9d07be5c      0x1a4 build/default/debug/_ext/1360937237/dataCommun.o
                0x9d07be5c                vTaskPcComm

.text.isGetMDBTubeStatus
                0x9d07c000      0x190
 .text.isGetMDBTubeStatus
                0x9d07c000      0x190 build/default/debug/_ext/659830161/MDB_CG.o

.text.vLCDInit  0x9d07c190      0x18c
 .text.vLCDInit
                0x9d07c190      0x18c build/default/debug/_ext/1360937237/hd44780.o
                0x9d07c190                vLCDInit

.text.vParametersGetFromPC
                0x9d07c31c      0x180
 .text.vParametersGetFromPC
                0x9d07c31c      0x180 build/default/debug/_ext/1360937237/parameters.o
                0x9d07c31c                vParametersGetFromPC

.text.prvUnlockQueue
                0x9d07c49c      0x17c
 .text.prvUnlockQueue
                0x9d07c49c      0x17c build/default/debug/_ext/404212886/queue.o

.text.xQueueGenericSendFromISR
                0x9d07c618      0x178
 .text.xQueueGenericSendFromISR
                0x9d07c618      0x178 build/default/debug/_ext/404212886/queue.o
                0x9d07c618                xQueueGenericSendFromISR

.text.vLCDSetValue
                0x9d07c790      0x178
 .text.vLCDSetValue
                0x9d07c790      0x178 build/default/debug/_ext/1360937237/hd44780.o

.text.xTaskPriorityDisinherit
                0x9d07c908      0x170
 .text.xTaskPriorityDisinherit
                0x9d07c908      0x170 build/default/debug/_ext/404212886/FreeRTOS_tasks.o
                0x9d07c908                xTaskPriorityDisinherit

.text.DRV_AT24_Initialize
                0x9d07ca78      0x16c
 .text.DRV_AT24_Initialize
                0x9d07ca78      0x16c build/default/debug/_ext/897820976/drv_at24.o
                0x9d07ca78                DRV_AT24_Initialize

.text.getds18b20Temp
                0x9d07cbe4      0x16c
 .text.getds18b20Temp
                0x9d07cbe4      0x16c build/default/debug/_ext/1360937237/DS18B20.o
                0x9d07cbe4                getds18b20Temp

.text           0x9d07cd50      0x168
 .text          0x9d07cd50      0x168 d:/program files (x86)/microchip/xc32/v2.30/bin/bin/../../lib/gcc/pic32mx/4.8.3/../../../../pic32mx/lib\libpic32.a(memcpy.o)
                0x9d07cd50                memcpy

.text.xQueueGenericReset
                0x9d07ceb8      0x160
 .text.xQueueGenericReset
                0x9d07ceb8      0x160 build/default/debug/_ext/404212886/queue.o
                0x9d07ceb8                xQueueGenericReset

.text.vTaskNotifyGiveFromISR
                0x9d07d018      0x160
 .text.vTaskNotifyGiveFromISR
                0x9d07d018      0x160 build/default/debug/_ext/404212886/FreeRTOS_tasks.o
                0x9d07d018                vTaskNotifyGiveFromISR

.rodata         0x9d07d178      0x2c0
 .rodata        0x9d07d178      0x160 build/default/debug/_ext/1360937237/mainboard2.o
                0x9d07d178                STR_MANUFACTURER
                0x9d07d18c                STR_VERSION
                0x9d07d198                STR_SELECT
                0x9d07d1ac                STR_YOUR_PRODUCT
                0x9d07d1bc                STR_CREDIT
                0x9d07d1c8                STR_DISPENSE
                0x9d07d1d8                STR_IN_PROGRESS
                0x9d07d1e8                STR_TO_PAY
                0x9d07d1f4                STR_TAKE
                0x9d07d200                STR_YOUR_CHOICE
                0x9d07d210                STR_RETURN_IN_PROGRESS
                0x9d07d224                STR_MACHINE
                0x9d07d238                STR_HS
                0x9d07d24c                STR_CHOICE
                0x9d07d258                STR_PRICE
                0x9d07d260                STR_VERIFGSM
                0x9d07d274                STR_PATIENCE
 .rodata        0x9d07d2d8      0x160 d:/program files (x86)/microchip/xc32/v2.30/bin/bin/../../lib/gcc/pic32mx/4.8.3/../../../../pic32mx/lib\libc.a(ldpowers.o)
                0x9d07d2d8                _npowers_
                0x9d07d388                _powers_

.text.vTaskSwitchContext
                0x9d07d438      0x15c
 .text.vTaskSwitchContext
                0x9d07d438      0x15c build/default/debug/_ext/404212886/FreeRTOS_tasks.o
                0x9d07d438                vTaskSwitchContext

.text.prvAddNewTaskToReadyList
                0x9d07d594      0x154
 .text.prvAddNewTaskToReadyList
                0x9d07d594      0x154 build/default/debug/_ext/404212886/FreeRTOS_tasks.o
                0x9d07d594                prvAddNewTaskToReadyList

.text.vHD44780Init
                0x9d07d6e8      0x154
 .text.vHD44780Init
                0x9d07d6e8      0x154 build/default/debug/_ext/1360937237/hd44780.o
                0x9d07d6e8                vHD44780Init

.text.vTaskDelayUntil
                0x9d07d83c      0x14c
 .text.vTaskDelayUntil
                0x9d07d83c      0x14c build/default/debug/_ext/404212886/FreeRTOS_tasks.o
                0x9d07d83c                vTaskDelayUntil

.text.vVMCAcknowledge
                0x9d07d988      0x14c
 .text.vVMCAcknowledge
                0x9d07d988      0x14c build/default/debug/_ext/659830161/MDB.o
                0x9d07d988                vVMCAcknowledge

.text.setLedChase
                0x9d07dad4      0x14c
 .text.setLedChase
                0x9d07dad4      0x14c build/default/debug/_ext/1360937237/leds.o
                0x9d07dad4                setLedChase

.text.fputc     0x9d07dc20      0x144
 .text.fputc    0x9d07dc20      0x144 d:/program files (x86)/microchip/xc32/v2.30/bin/bin/../../lib/gcc/pic32mx/4.8.3/../../../../pic32mx/lib\libc.a(_fputc_simple.o)
                0x9d07dc20                fputc

.text.prvAddCurrentTaskToDelayedList
                0x9d07dd64      0x140
 .text.prvAddCurrentTaskToDelayedList
                0x9d07dd64      0x140 build/default/debug/_ext/404212886/FreeRTOS_tasks.o
                0x9d07dd64                prvAddCurrentTaskToDelayedList

.text.CLK_Initialize
                0x9d07dea4      0x13c
 .text.CLK_Initialize
                0x9d07dea4      0x13c build/default/debug/_ext/60165520/plib_clk.o
                0x9d07dea4                CLK_Initialize

.text.prvSwitchTimerLists
                0x9d07dfe0      0x138
 .text.prvSwitchTimerLists
                0x9d07dfe0      0x138 build/default/debug/_ext/404212886/timers.o

.text.prvProcessTimerOrBlockTask
                0x9d07e118      0x12c
 .text.prvProcessTimerOrBlockTask
                0x9d07e118      0x12c build/default/debug/_ext/404212886/timers.o

.text._flsbuf   0x9d07e244      0x12c
 .text._flsbuf  0x9d07e244      0x12c d:/program files (x86)/microchip/xc32/v2.30/bin/bin/../../lib/gcc/pic32mx/4.8.3/../../../../pic32mx/lib\libc.a(_flsbuf_simple.o)
                0x9d07e244                _flsbuf

.text.dpcmp     0x9d07e370      0x12c
 .text.dpcmp    0x9d07e370      0x12c d:/program files (x86)/microchip/xc32/v2.30/bin/bin/../../lib/gcc/pic32mx/4.8.3/../../../../pic32mx/lib\libm.a(dpcmp.o)
                0x9d07e370                __gtdf2
                0x9d07e370                __ltdf2
                0x9d07e370                dpcmp
                0x9d07e370                __ledf2
                0x9d07e370                __nedf2
                0x9d07e370                __gedf2
                0x9d07e370                __eqdf2

.text.vReset    0x9d07e49c      0x128
 .text.vReset   0x9d07e49c      0x128 build/default/debug/_ext/1360937237/DS18B20.o

.text.xTaskRemoveFromEventList
                0x9d07e5c4      0x124
 .text.xTaskRemoveFromEventList
                0x9d07e5c4      0x124 build/default/debug/_ext/404212886/FreeRTOS_tasks.o
                0x9d07e5c4                xTaskRemoveFromEventList

.text.I2C1_WriteRead
                0x9d07e6e8      0x120
 .text.I2C1_WriteRead
                0x9d07e6e8      0x120 build/default/debug/_ext/60169480/plib_i2c1.o
                0x9d07e6e8                I2C1_WriteRead

.text.I2C1_Read
                0x9d07e808      0x118
 .text.I2C1_Read
                0x9d07e808      0x118 build/default/debug/_ext/60169480/plib_i2c1.o
                0x9d07e808                I2C1_Read

.text.vTaskResume
                0x9d07e920      0x118
 .text.vTaskResume
                0x9d07e920      0x118 build/default/debug/_ext/404212886/FreeRTOS_tasks.o
                0x9d07e920                vTaskResume

.text.byGetLCDAddressCounter
                0x9d07ea38      0x118
 .text.byGetLCDAddressCounter
                0x9d07ea38      0x118 build/default/debug/_ext/1360937237/hd44780.o

.text.I2C1_Write
                0x9d07eb50      0x114
 .text.I2C1_Write
                0x9d07eb50      0x114 build/default/debug/_ext/60169480/plib_i2c1.o
                0x9d07eb50                I2C1_Write

.text.xTaskCreate
                0x9d07ec64      0x114
 .text.xTaskCreate
                0x9d07ec64      0x114 build/default/debug/_ext/404212886/FreeRTOS_tasks.o
                0x9d07ec64                xTaskCreate

.text.xTaskCheckForTimeOut
                0x9d07ed78      0x114
 .text.xTaskCheckForTimeOut
                0x9d07ed78      0x114 build/default/debug/_ext/404212886/FreeRTOS_tasks.o
                0x9d07ed78                xTaskCheckForTimeOut

.text.prvInsertTimerInActiveList
                0x9d07ee8c      0x114
 .text.prvInsertTimerInActiveList
                0x9d07ee8c      0x114 build/default/debug/_ext/404212886/timers.o

.rodata         0x9d07efa0      0x10c
 .rodata        0x9d07efa0      0x10c build/default/debug/_ext/1171490990/exceptions.o

.text.xTimerGenericCommand
                0x9d07f0ac      0x108
 .text.xTimerGenericCommand
                0x9d07f0ac      0x108 build/default/debug/_ext/404212886/timers.o
                0x9d07f0ac                xTimerGenericCommand

.rodata         0x9d07f1b4      0x104
 .rodata        0x9d07f1b4      0x104 d:/program files (x86)/microchip/xc32/v2.30/bin/bin/../../lib/gcc/pic32mx/4.8.3/../../../../pic32mx/lib\libc.a(ctype.o)
                0x9d07f1b4                _ctype

.text.pxPortInitialiseStack
                0x9d07f2b8       0xf8
 .text.pxPortInitialiseStack
                0x9d07f2b8       0xf8 build/default/debug/_ext/951553248/port.o
                0x9d07f2b8                pxPortInitialiseStack

.text.ulTaskNotifyTake
                0x9d07f3b0       0xf8
 .text.ulTaskNotifyTake
                0x9d07f3b0       0xf8 build/default/debug/_ext/404212886/FreeRTOS_tasks.o
                0x9d07f3b0                ulTaskNotifyTake

.text.vMDBInit  0x9d07f4a8       0xf8
 .text.vMDBInit
                0x9d07f4a8       0xf8 build/default/debug/_ext/659830161/MDB.o
                0x9d07f4a8                vMDBInit

.text.vTaskTrapSecurity
                0x9d07f5a0       0xf8
 .text.vTaskTrapSecurity
                0x9d07f5a0       0xf8 build/default/debug/_ext/1360937237/trap_security.o

.rodata         0x9d07f698       0xf8
 .rodata        0x9d07f698       0xf8 d:/program files (x86)/microchip/xc32/v2.30/bin/bin/../../lib/gcc/pic32mx/4.8.3/../../../../pic32mx/lib\libc.a(doprnt.o)

.text.UART3_Read
                0x9d07f790       0xf0
 .text.UART3_Read
                0x9d07f790       0xf0 build/default/debug/_ext/1865657120/plib_uart3.o
                0x9d07f790                UART3_Read

.text.prvNotifyQueueSetContainer
                0x9d07f880       0xf0
 .text.prvNotifyQueueSetContainer
                0x9d07f880       0xf0 build/default/debug/_ext/404212886/queue.o

.text.vListInsert
                0x9d07f970       0xec
 .text.vListInsert
                0x9d07f970       0xec build/default/debug/_ext/404212886/list.o
                0x9d07f970                vListInsert

.text.prvProcessExpiredTimer
                0x9d07fa5c       0xec
 .text.prvProcessExpiredTimer
                0x9d07fa5c       0xec build/default/debug/_ext/404212886/timers.o

.text.__fixdfdi
                0x9d07fb48       0xe8
 .text.__fixdfdi
                0x9d07fb48       0xe8 d:/program files (x86)/microchip/xc32/v2.30/bin/bin/../../lib/gcc/pic32mx/4.8.3/../../../../pic32mx/lib\libe.a(_fixdfdi.o)
                0x9d07fb48                __fixdfdi

.text.prvInitialiseTaskLists
                0x9d07fc30       0xe0
 .text.prvInitialiseTaskLists
                0x9d07fc30       0xe0 build/default/debug/_ext/404212886/FreeRTOS_tasks.o
                0x9d07fc30                prvInitialiseTaskLists

.text.SYS_Initialize
                0x9d07fd10       0xdc
 .text.SYS_Initialize
                0x9d07fd10       0xdc build/default/debug/_ext/1171490990/initialization.o
                0x9d07fd10                SYS_Initialize

.text.pvPortMalloc
                0x9d07fdec       0xdc
 .text.pvPortMalloc
                0x9d07fdec       0xdc build/default/debug/_ext/1665200909/heap_1.o
                0x9d07fdec                pvPortMalloc

.text.vADCInit  0x9d07fec8       0xdc
 .text.vADCInit
                0x9d07fec8       0xdc build/default/debug/_ext/1360937237/trap_security.o
                0x9d07fec8                vADCInit

.text.general_exception
                0x9d000000       0xdc
 .text.general_exception
                0x9d000000       0xdc d:/program files (x86)/microchip/xc32/v2.30/bin/bin/../../lib/gcc/pic32mx/4.8.3/../../../../pic32mx/lib\libpic32.a(general-exception.o)
                0x9d000000                _general_exception_context

.text.dsCRC8    0x9d0000dc       0xd8
 .text.dsCRC8   0x9d0000dc       0xd8 build/default/debug/_ext/1360937237/DS18B20.o
                0x9d0000dc                dsCRC8

.text.vMotorsInit
                0x9d0001b4       0xd8
 .text.vMotorsInit
                0x9d0001b4       0xd8 build/default/debug/_ext/1360937237/moteurs.o
                0x9d0001b4                vMotorsInit

.text.ds18b20ReadScratchPad
                0x9d00028c       0xd4
 .text.ds18b20ReadScratchPad
                0x9d00028c       0xd4 build/default/debug/_ext/1360937237/DS18B20.o

.text.isMDBPoll
                0x9d000360       0xd0
 .text.isMDBPoll
                0x9d000360       0xd0 build/default/debug/_ext/659830161/MDB.o
                0x9d000360                isMDBPoll

.text.OneWireWriteByte
                0x9d000430       0xd0
 .text.OneWireWriteByte
                0x9d000430       0xd0 build/default/debug/_ext/1360937237/DS18B20.o

.text.isGetBVId
                0x9d000500       0xcc
 .text.isGetBVId
                0x9d000500       0xcc build/default/debug/_ext/659830161/MDB_BV.o

.text.DRV_AT24_Open
                0x9d0005cc       0xc8
 .text.DRV_AT24_Open
                0x9d0005cc       0xc8 build/default/debug/_ext/897820976/drv_at24.o
                0x9d0005cc                DRV_AT24_Open

.text.NVM_StartOperationAtAddress
                0x9d000694       0xc8
 .text.NVM_StartOperationAtAddress
                0x9d000694       0xc8 build/default/debug/_ext/60176403/plib_nvm.o

.text.vCreateChar
                0x9d00075c       0xc8
 .text.vCreateChar
                0x9d00075c       0xc8 build/default/debug/_ext/1360937237/hd44780.o

.text.OneWireReadByte
                0x9d000824       0xc8
 .text.OneWireReadByte
                0x9d000824       0xc8 build/default/debug/_ext/1360937237/DS18B20.o

.text.xQueueGenericCreate
                0x9d0008ec       0xc4
 .text.xQueueGenericCreate
                0x9d0008ec       0xc4 build/default/debug/_ext/404212886/queue.o
                0x9d0008ec                xQueueGenericCreate

.text.vQueueWaitForMessageRestricted
                0x9d0009b0       0xc4
 .text.vQueueWaitForMessageRestricted
                0x9d0009b0       0xc4 build/default/debug/_ext/404212886/queue.o
                0x9d0009b0                vQueueWaitForMessageRestricted

.text.vTaskStartScheduler
                0x9d000a74       0xc4
 .text.vTaskStartScheduler
                0x9d000a74       0xc4 build/default/debug/_ext/404212886/FreeRTOS_tasks.o
                0x9d000a74                vTaskStartScheduler

.text.setShiftState
                0x9d000b38       0xc4
 .text.setShiftState
                0x9d000b38       0xc4 build/default/debug/_ext/1360937237/contacts.o
                0x9d000b38                setShiftState

.text.vLEDsKeybInit
                0x9d000bfc       0xc0
 .text.vLEDsKeybInit
                0x9d000bfc       0xc0 build/default/debug/_ext/1360937237/leds.o
                0x9d000bfc                vLEDsKeybInit

.text.vLCD_Function
                0x9d000cbc       0xbc
 .text.vLCD_Function
                0x9d000cbc       0xbc build/default/debug/_ext/1360937237/hd44780.o
                0x9d000cbc                vLCD_Function

.text.prvCheckForValidListAndQueue
                0x9d000d78       0xb8
 .text.prvCheckForValidListAndQueue
                0x9d000d78       0xb8 build/default/debug/_ext/404212886/timers.o

.text.prvInitialiseNewTimer
                0x9d000e30       0xb4
 .text.prvInitialiseNewTimer
                0x9d000e30       0xb4 build/default/debug/_ext/404212886/timers.o

.text._I2CEventHandler
                0x9d000ee4       0xb0
 .text._I2CEventHandler
                0x9d000ee4       0xb0 build/default/debug/_ext/897820976/drv_at24.o

.text.vQueueAddToRegistry
                0x9d000f94       0xb0
 .text.vQueueAddToRegistry
                0x9d000f94       0xb0 build/default/debug/_ext/404212886/queue.o
                0x9d000f94                vQueueAddToRegistry

.text.vLCD_Display_control
                0x9d001044       0xb0
 .text.vLCD_Display_control
                0x9d001044       0xb0 build/default/debug/_ext/1360937237/hd44780.o
                0x9d001044                vLCD_Display_control

.text.prvCopyDataFromQueue
                0x9d0010f4       0xac
 .text.prvCopyDataFromQueue
                0x9d0010f4       0xac build/default/debug/_ext/404212886/queue.o

.text.fptodp    0x9d0011a0       0xac
 .text.fptodp   0x9d0011a0       0xac d:/program files (x86)/microchip/xc32/v2.30/bin/bin/../../lib/gcc/pic32mx/4.8.3/../../../../pic32mx/lib\libm.a(fptodp.o)
                0x9d0011a0                fptodp
                0x9d0011a0                __extendsfdf2

.text.UART3_Write
                0x9d00124c       0xa8
 .text.UART3_Write
                0x9d00124c       0xa8 build/default/debug/_ext/1865657120/plib_uart3.o
                0x9d00124c                UART3_Write

.text.isSetMDBillType
                0x9d0012f4       0xa8
 .text.isSetMDBillType
                0x9d0012f4       0xa8 build/default/debug/_ext/659830161/MDB_BV.o

.text           0x9d00139c       0xa8
 .text          0x9d00139c       0xa8 d:/program files (x86)/microchip/xc32/v2.30/bin/bin/../../lib/gcc/pic32mx/4.8.3/../../../../pic32mx/lib\libpic32.a(memset.o)
                0x9d00139c                memset

.text.libm      0x9d001444       0xa8
 .text.libm     0x9d001444       0xa8 d:/program files (x86)/microchip/xc32/v2.30/bin/bin/../../lib/gcc/pic32mx/4.8.3/../../../../pic32mx/lib\libm.a(dpfrexp.o)
                0x9d001444                dpfrexp
                0x9d001444                frexp
                0x9d001444                frexpl

.text.DRV_AT24_Write
                0x9d0014ec       0xa4
 .text.DRV_AT24_Write
                0x9d0014ec       0xa4 build/default/debug/_ext/897820976/drv_at24.o
                0x9d0014ec                DRV_AT24_Write

.text.setAuditValue
                0x9d001590       0xa4
 .text.setAuditValue
                0x9d001590       0xa4 build/default/debug/_ext/1360937237/audits.o
                0x9d001590                setAuditValue

.text.UART3_ErrorClear
                0x9d001634       0xa0
 .text.UART3_ErrorClear
                0x9d001634       0xa0 build/default/debug/_ext/1865657120/plib_uart3.o

.text.uxListRemove
                0x9d0016d4       0xa0
 .text.uxListRemove
                0x9d0016d4       0xa0 build/default/debug/_ext/404212886/list.o
                0x9d0016d4                uxListRemove

.text.isCGEnableFeature
                0x9d001774       0xa0
 .text.isCGEnableFeature
                0x9d001774       0xa0 build/default/debug/_ext/659830161/MDB_CG.o

.text.isBVEnableFeature
                0x9d001814       0xa0
 .text.isBVEnableFeature
                0x9d001814       0xa0 build/default/debug/_ext/659830161/MDB_BV.o

.text.isSetBillEnable
                0x9d0018b4       0xa0
 .text.isSetBillEnable
                0x9d0018b4       0xa0 build/default/debug/_ext/659830161/MDB_BV.o
                0x9d0018b4                isSetBillEnable

.text.I2C1_Initialize
                0x9d001954       0x9c
 .text.I2C1_Initialize
                0x9d001954       0x9c build/default/debug/_ext/60169480/plib_i2c1.o
                0x9d001954                I2C1_Initialize

.text.vApplicationSetupTickTimerInterrupt
                0x9d0019f0       0x9c
 .text.vApplicationSetupTickTimerInterrupt
                0x9d0019f0       0x9c build/default/debug/_ext/951553248/port.o
                0x9d0019f0                vApplicationSetupTickTimerInterrupt

.text.isSetCoinEnable
                0x9d001a8c       0x9c
 .text.isSetCoinEnable
                0x9d001a8c       0x9c build/default/debug/_ext/659830161/MDB_CG.o
                0x9d001a8c                isSetCoinEnable

.text.fpcmp     0x9d001b28       0x9c
 .text.fpcmp    0x9d001b28       0x9c d:/program files (x86)/microchip/xc32/v2.30/bin/bin/../../lib/gcc/pic32mx/4.8.3/../../../../pic32mx/lib\libm.a(fpcmp.o)
                0x9d001b28                __nesf2
                0x9d001b28                __gtsf2
                0x9d001b28                __eqsf2
                0x9d001b28                __ltsf2
                0x9d001b28                fpcmp
                0x9d001b28                __gesf2
                0x9d001b28                __lesf2

.text.write     0x9d001bc4       0x9c
 .text.write    0x9d001bc4       0x9c d:/program files (x86)/microchip/xc32/v2.30/bin/bin/../../lib/gcc/pic32mx/4.8.3/../../../../pic32mx/lib\libpic32.a(write.o)
                0x9d001bc4                write

.text.I2C1_BUS_InterruptHandler
                0x9d001c60       0x98
 .text.I2C1_BUS_InterruptHandler
                0x9d001c60       0x98 build/default/debug/_ext/60169480/plib_i2c1.o

.text.prvInitialiseNewQueue
                0x9d001cf8       0x98
 .text.prvInitialiseNewQueue
                0x9d001cf8       0x98 build/default/debug/_ext/404212886/queue.o

.text.prvCheckTasksWaitingTermination
                0x9d001d90       0x98
 .text.prvCheckTasksWaitingTermination
                0x9d001d90       0x98 build/default/debug/_ext/404212886/FreeRTOS_tasks.o
                0x9d001d90                prvCheckTasksWaitingTermination

.text.isAlternatePayout
                0x9d001e28       0x98
 .text.isAlternatePayout
                0x9d001e28       0x98 build/default/debug/_ext/659830161/MDB_CG.o

.text.isGetMDBConfig
                0x9d001ec0       0x94
 .text.isGetMDBConfig
                0x9d001ec0       0x94 build/default/debug/_ext/659830161/MDB.o
                0x9d001ec0                isGetMDBConfig

.text.vDisplayLCD
                0x9d001f54       0x94
 .text.vDisplayLCD
                0x9d001f54       0x94 build/default/debug/_ext/1360937237/hd44780.o
                0x9d001f54                vDisplayLCD

.text.I2C_1_InterruptHandler
                0x9d001fe8       0x90
 .text.I2C_1_InterruptHandler
                0x9d001fe8       0x90 build/default/debug/_ext/60169480/plib_i2c1.o
                0x9d001fe8                I2C_1_InterruptHandler

.text.ADC_Initialize
                0x9d002078       0x8c
 .text.ADC_Initialize
                0x9d002078       0x8c build/default/debug/_ext/60163342/plib_adc.o
                0x9d002078                ADC_Initialize

.text.xPortStartScheduler
                0x9d002104       0x8c
 .text.xPortStartScheduler
                0x9d002104       0x8c build/default/debug/_ext/951553248/port.o
                0x9d002104                xPortStartScheduler

.text.vListInsertEnd
                0x9d002190       0x8c
 .text.vListInsertEnd
                0x9d002190       0x8c build/default/debug/_ext/404212886/list.o
                0x9d002190                vListInsertEnd

.text.vTaskDelay
                0x9d00221c       0x8c
 .text.vTaskDelay
                0x9d00221c       0x8c build/default/debug/_ext/404212886/FreeRTOS_tasks.o
                0x9d00221c                vTaskDelay

.text.isGetCGId
                0x9d0022a8       0x8c
 .text.isGetCGId
                0x9d0022a8       0x8c build/default/debug/_ext/659830161/MDB_CG.o

.text.dptoul    0x9d002334       0x8c
 .text.dptoul   0x9d002334       0x8c d:/program files (x86)/microchip/xc32/v2.30/bin/bin/../../lib/gcc/pic32mx/4.8.3/../../../../pic32mx/lib\libm.a(dptoul.o)
                0x9d002334                dptoul
                0x9d002334                __fixunsdfsi

.text.__orderdf2
                0x9d0023c0       0x8c
 .text.__orderdf2
                0x9d0023c0       0x8c d:/program files (x86)/microchip/xc32/v2.30/bin/bin/../../lib/gcc/pic32mx/4.8.3/../../../../pic32mx/lib\libe.a(_orderdf2.o)
                0x9d0023c0                __orderdf2

.text.xTimerCreate
                0x9d00244c       0x88
 .text.xTimerCreate
                0x9d00244c       0x88 build/default/debug/_ext/404212886/timers.o
                0x9d00244c                xTimerCreate

.text.isMDBReset
                0x9d0024d4       0x88
 .text.isMDBReset
                0x9d0024d4       0x88 build/default/debug/_ext/659830161/MDB.o
                0x9d0024d4                isMDBReset

.text.vLCDGotoXY
                0x9d00255c       0x88
 .text.vLCDGotoXY
                0x9d00255c       0x88 build/default/debug/_ext/1360937237/hd44780.o
                0x9d00255c                vLCDGotoXY

.text.vDS18B20Init
                0x9d0025e4       0x88
 .text.vDS18B20Init
                0x9d0025e4       0x88 build/default/debug/_ext/1360937237/DS18B20.o
                0x9d0025e4                vDS18B20Init

.text.GPIO_PortWrite
                0x9d00266c       0x84
 .text.GPIO_PortWrite
                0x9d00266c       0x84 build/default/debug/_ext/1865254177/plib_gpio.o
                0x9d00266c                GPIO_PortWrite

.text.I2C1_IsBusy
                0x9d0026f0       0x84
 .text.I2C1_IsBusy
                0x9d0026f0       0x84 build/default/debug/_ext/60169480/plib_i2c1.o
                0x9d0026f0                I2C1_IsBusy

.text.vAuditsInit
                0x9d002774       0x84
 .text.vAuditsInit
                0x9d002774       0x84 build/default/debug/_ext/1360937237/audits.o
                0x9d002774                vAuditsInit

.text.vTaskExitCritical
                0x9d0027f8       0x84
 .text.vTaskExitCritical
                0x9d0027f8       0x84 build/default/debug/_ext/404212886/FreeRTOS_tasks.o
                0x9d0027f8                vTaskExitCritical

.text.isGetBVtackerStatus
                0x9d00287c       0x84
 .text.isGetBVtackerStatus
                0x9d00287c       0x84 build/default/debug/_ext/659830161/MDB_BV.o

.text.vLCD_EntryMode
                0x9d002900       0x84
 .text.vLCD_EntryMode
                0x9d002900       0x84 build/default/debug/_ext/1360937237/hd44780.o
                0x9d002900                vLCD_EntryMode

.text.MAINBOARD2_Initialize
                0x9d002984       0x84
 .text.MAINBOARD2_Initialize
                0x9d002984       0x84 build/default/debug/_ext/1360937237/mainboard2.o
                0x9d002984                MAINBOARD2_Initialize

.text           0x9d002a08       0x84
 .text          0x9d002a08       0x84 d:/program files (x86)/microchip/xc32/v2.30/bin/bin/../../lib/gcc/pic32mx/4.8.3/../../../../pic32mx/lib\libpic32.a(pic32_data_init.o)
                0x9d002a08                __pic32_data_init

.text._DRV_AT24_ReadStatus
                0x9d002a8c       0x80
 .text._DRV_AT24_ReadStatus
                0x9d002a8c       0x80 build/default/debug/_ext/897820976/drv_at24.o

.text.isSetMDBCoinType
                0x9d002b0c       0x80
 .text.isSetMDBCoinType
                0x9d002b0c       0x80 build/default/debug/_ext/659830161/MDB_CG.o

.text.__fixunsdfdi
                0x9d002b8c       0x80
 .text.__fixunsdfdi
                0x9d002b8c       0x80 d:/program files (x86)/microchip/xc32/v2.30/bin/bin/../../lib/gcc/pic32mx/4.8.3/../../../../pic32mx/lib\libe.a(_fixunsdfdi.o)
                0x9d002b8c                __fixunsdfdi

.text.prvTaskIsTaskSuspended
                0x9d002c0c       0x7c
 .text.prvTaskIsTaskSuspended
                0x9d002c0c       0x7c build/default/debug/_ext/404212886/FreeRTOS_tasks.o
                0x9d002c0c                prvTaskIsTaskSuspended

.text.prvGetNextExpireTime
                0x9d002c88       0x7c
 .text.prvGetNextExpireTime
                0x9d002c88       0x7c build/default/debug/_ext/404212886/timers.o

.text.prvSampleTimeNow
                0x9d002d04       0x7c
 .text.prvSampleTimeNow
                0x9d002d04       0x7c build/default/debug/_ext/404212886/timers.o

.text.vSetCGRamAddr
                0x9d002d80       0x7c
 .text.vSetCGRamAddr
                0x9d002d80       0x7c build/default/debug/_ext/1360937237/hd44780.o

.text.xTimerCreateTimerTask
                0x9d002dfc       0x78
 .text.xTimerCreateTimerTask
                0x9d002dfc       0x78 build/default/debug/_ext/404212886/timers.o
                0x9d002dfc                xTimerCreateTimerTask

.text._mon_putc
                0x9d002e74       0x78
 .text._mon_putc
                0x9d002e74       0x78 build/default/debug/_ext/1360937237/hd44780.o
                0x9d002e74                _mon_putc

.text.vTO_OverPay
                0x9d002eec       0x78
 .text.vTO_OverPay
                0x9d002eec       0x78 build/default/debug/_ext/1360937237/mainboard2.o
                0x9d002eec                vTO_OverPay

.text.litodp    0x9d002f64       0x78
 .text.litodp   0x9d002f64       0x78 d:/program files (x86)/microchip/xc32/v2.30/bin/bin/../../lib/gcc/pic32mx/4.8.3/../../../../pic32mx/lib\libm.a(litodp.o)
                0x9d002f64                litodp
                0x9d002f64                __floatsidf

.text._general_exception_handler
                0x9d002fdc       0x74
 .text._general_exception_handler
                0x9d002fdc       0x74 build/default/debug/_ext/1171490990/exceptions.o
                0x9d002fdc                _general_exception_handler

.text.vPortIncrementTick
                0x9d003050       0x74
 .text.vPortIncrementTick
                0x9d003050       0x74 build/default/debug/_ext/951553248/port.o
                0x9d003050                vPortIncrementTick

.text.vLCD_Command
                0x9d0030c4       0x74
 .text.vLCD_Command
                0x9d0030c4       0x74 build/default/debug/_ext/1360937237/hd44780.o

.text.vParametersWrite
                0x9d003138       0x70
 .text.vParametersWrite
                0x9d003138       0x70 build/default/debug/_ext/1360937237/parameters.o
                0x9d003138                vParametersWrite

.text.vDataInit
                0x9d0031a8       0x70
 .text.vDataInit
                0x9d0031a8       0x70 build/default/debug/_ext/1360937237/dataCommun.o
                0x9d0031a8                vDataInit

.text.vTaskPlaceOnEventListRestricted
                0x9d003218       0x70
 .text.vTaskPlaceOnEventListRestricted
                0x9d003218       0x70 build/default/debug/_ext/404212886/FreeRTOS_tasks.o
                0x9d003218                vTaskPlaceOnEventListRestricted

.text.byCheckSum
                0x9d003288       0x70
 .text.byCheckSum
                0x9d003288       0x70 build/default/debug/_ext/659830161/MDB.o

.text.vDisplayRefused
                0x9d0032f8       0x70
 .text.vDisplayRefused
                0x9d0032f8       0x70 build/default/debug/_ext/659830161/MDB.o
                0x9d0032f8                vDisplayRefused

.text.prvIsQueueFull
                0x9d003368       0x6c
 .text.prvIsQueueFull
                0x9d003368       0x6c build/default/debug/_ext/404212886/queue.o

.text.vTaskEnterCritical
                0x9d0033d4       0x6c
 .text.vTaskEnterCritical
                0x9d0033d4       0x6c build/default/debug/_ext/404212886/FreeRTOS_tasks.o
                0x9d0033d4                vTaskEnterCritical

.text.vTaskChange
                0x9d003440       0x6c
 .text.vTaskChange
                0x9d003440       0x6c build/default/debug/_ext/659830161/MDB_CG.o

.text.vCGInit   0x9d0034ac       0x6c
 .text.vCGInit  0x9d0034ac       0x6c build/default/debug/_ext/659830161/MDB_CG.o
                0x9d0034ac                vCGInit

.text.vListInitialise
                0x9d003518       0x68
 .text.vListInitialise
                0x9d003518       0x68 build/default/debug/_ext/404212886/list.o
                0x9d003518                vListInitialise

.text.isGetDiagnostic
                0x9d003580       0x68
 .text.isGetDiagnostic
                0x9d003580       0x68 build/default/debug/_ext/659830161/MDB_CG.o

.text.vTaskSendToDisplay
                0x9d0035e8       0x68
 .text.vTaskSendToDisplay
                0x9d0035e8       0x68 build/default/debug/_ext/1360937237/hd44780.o

.text.vLCD_Set_Interface
                0x9d003650       0x68
 .text.vLCD_Set_Interface
                0x9d003650       0x68 build/default/debug/_ext/1360937237/hd44780.o

.text.prvIsQueueEmpty
                0x9d0036b8       0x64
 .text.prvIsQueueEmpty
                0x9d0036b8       0x64 build/default/debug/_ext/404212886/queue.o

.text.decimalDivider
                0x9d00371c       0x64
 .text.decimalDivider
                0x9d00371c       0x64 build/default/debug/_ext/659830161/MDB.o
                0x9d00371c                decimalDivider

.text.isPayoutStatus
                0x9d003780       0x64
 .text.isPayoutStatus
                0x9d003780       0x64 build/default/debug/_ext/659830161/MDB_CG.o

.text.memmove   0x9d0037e4       0x64
 .text.memmove  0x9d0037e4       0x64 d:/program files (x86)/microchip/xc32/v2.30/bin/bin/../../lib/gcc/pic32mx/4.8.3/../../../../pic32mx/lib\libc.a(memmove.o)
                0x9d0037e4                memmove

.text           0x9d003848       0x64
 .text          0x9d003848       0x64 d:/program files (x86)/microchip/xc32/v2.30/bin/bin/../../lib/gcc/pic32mx/4.8.3\libgcc.a(_floatundidf.o)
                0x9d003848                __floatundidf

.text.UART3_ErrorGet
                0x9d0038ac       0x60
 .text.UART3_ErrorGet
                0x9d0038ac       0x60 build/default/debug/_ext/1865657120/plib_uart3.o
                0x9d0038ac                UART3_ErrorGet

.text.SYS_Tasks
                0x9d00390c       0x60
 .text.SYS_Tasks
                0x9d00390c       0x60 build/default/debug/_ext/1171490990/tasks.o
                0x9d00390c                SYS_Tasks

.text.xTaskGetSchedulerState
                0x9d00396c       0x60
 .text.xTaskGetSchedulerState
                0x9d00396c       0x60 build/default/debug/_ext/404212886/FreeRTOS_tasks.o
                0x9d00396c                xTaskGetSchedulerState

.text.vResetCG  0x9d0039cc       0x60
 .text.vResetCG
                0x9d0039cc       0x60 build/default/debug/_ext/659830161/MDB_CG.o

.text.Delay10us
                0x9d003a2c       0x60
 .text.Delay10us
                0x9d003a2c       0x60 build/default/debug/_ext/1360937237/delay_us.o
                0x9d003a2c                Delay10us

.text.sitofp    0x9d003a8c       0x60
 .text.sitofp   0x9d003a8c       0x60 d:/program files (x86)/microchip/xc32/v2.30/bin/bin/../../lib/gcc/pic32mx/4.8.3/../../../../pic32mx/lib\libm.a(sitofp.o)
                0x9d003a8c                __floatsisf
                0x9d003a8c                litofp
                0x9d003a8c                sitofp

.text.DRV_AT24_TransferStatusGet
                0x9d07ffa4       0x5c
 .text.DRV_AT24_TransferStatusGet
                0x9d07ffa4       0x5c build/default/debug/_ext/897820976/drv_at24.o
                0x9d07ffa4                DRV_AT24_TransferStatusGet

.text.I2C1_CallbackRegister
                0x9d003aec       0x5c
 .text.I2C1_CallbackRegister
                0x9d003aec       0x5c build/default/debug/_ext/60169480/plib_i2c1.o
                0x9d003aec                I2C1_CallbackRegister

.text.getAuditValue
                0x9d003b48       0x5c
 .text.getAuditValue
                0x9d003b48       0x5c build/default/debug/_ext/1360937237/audits.o
                0x9d003b48                getAuditValue

.text.prvGetDisinheritPriorityAfterTimeout
                0x9d003ba4       0x5c
 .text.prvGetDisinheritPriorityAfterTimeout
                0x9d003ba4       0x5c build/default/debug/_ext/404212886/queue.o

.text.prvResetNextTaskUnblockTime
                0x9d003c00       0x5c
 .text.prvResetNextTaskUnblockTime
                0x9d003c00       0x5c build/default/debug/_ext/404212886/FreeRTOS_tasks.o
                0x9d003c00                prvResetNextTaskUnblockTime

.text.converT   0x9d003c5c       0x5c
 .text.converT  0x9d003c5c       0x5c build/default/debug/_ext/1360937237/DS18B20.o

.text.main      0x9d003cb8       0x5c
 .text.main     0x9d003cb8       0x5c build/default/debug/_ext/1360937237/main.o
                0x9d003cb8                main

.text.DRV_AT24_PageWrite
                0x9d003d14       0x58
 .text.DRV_AT24_PageWrite
                0x9d003d14       0x58 build/default/debug/_ext/897820976/drv_at24.o
                0x9d003d14                DRV_AT24_PageWrite

.text.uxPortSetInterruptMaskFromISR
                0x9d003d6c       0x58
 .text.uxPortSetInterruptMaskFromISR
                0x9d003d6c       0x58 build/default/debug/_ext/951553248/port.o
                0x9d003d6c                uxPortSetInterruptMaskFromISR

.text.vTaskPlaceOnEventList
                0x9d003dc4       0x58
 .text.vTaskPlaceOnEventList
                0x9d003dc4       0x58 build/default/debug/_ext/404212886/FreeRTOS_tasks.o
                0x9d003dc4                vTaskPlaceOnEventList

.text.prvIdleTask
                0x9d003e1c       0x58
 .text.prvIdleTask
                0x9d003e1c       0x58 build/default/debug/_ext/404212886/FreeRTOS_tasks.o
                0x9d003e1c                prvIdleTask

.rodata         0x9d003e74       0x58
 .rodata        0x9d003e74       0x58 build/default/debug/_ext/1360937237/hd44780.o
                0x9d003e74                barr
                0x9d003e9c                euro

.text.setLedState
                0x9d003ecc       0x58
 .text.setLedState
                0x9d003ecc       0x58 build/default/debug/_ext/1360937237/leds.o
                0x9d003ecc                setLedState

.text.ADC_InterruptHandler
                0x9d003f24       0x54
 .text.ADC_InterruptHandler
                0x9d003f24       0x54 build/default/debug/_ext/60163342/plib_adc.o
                0x9d003f24                ADC_InterruptHandler

.text.NVM_RowWrite
                0x9d003f78       0x54
 .text.NVM_RowWrite
                0x9d003f78       0x54 build/default/debug/_ext/60176403/plib_nvm.o
                0x9d003f78                NVM_RowWrite

.text.getChannelEnable
                0x9d003fcc       0x54
 .text.getChannelEnable
                0x9d003fcc       0x54 build/default/debug/_ext/1360937237/parameters.o
                0x9d003fcc                getChannelEnable

.text.getCoinValue
                0x9d004020       0x54
 .text.getCoinValue
                0x9d004020       0x54 build/default/debug/_ext/659830161/MDB_CG.o
                0x9d004020                getCoinValue

.text.getBillValue
                0x9d004074       0x54
 .text.getBillValue
                0x9d004074       0x54 build/default/debug/_ext/659830161/MDB_BV.o
                0x9d004074                getBillValue

.text.isLCDBusy
                0x9d0040c8       0x54
 .text.isLCDBusy
                0x9d0040c8       0x54 build/default/debug/_ext/1360937237/hd44780.o

.text.setMotorState
                0x9d00411c       0x54
 .text.setMotorState
                0x9d00411c       0x54 build/default/debug/_ext/1360937237/moteurs.o
                0x9d00411c                setMotorState

.text.main_entry
                0x9d004170       0x54
 .text.main_entry
                0x9d004170       0x54 C:\Users\ADMINI~1\AppData\Local\Temp\cc3xLHuC.o
                0x9d0041a4                __crt0_exit

.text.UART3_Initialize
                0x9d0041c4       0x50
 .text.UART3_Initialize
                0x9d0041c4       0x50 build/default/debug/_ext/1865657120/plib_uart3.o
                0x9d0041c4                UART3_Initialize

.text.UART1_Initialize
                0x9d004214       0x50
 .text.UART1_Initialize
                0x9d004214       0x50 build/default/debug/_ext/1865657120/plib_uart1.o
                0x9d004214                UART1_Initialize

.text.ADC_Handler
                0x9d004264       0x50
 .text.ADC_Handler
                0x9d004264       0x50 build/default/debug/_ext/1171490990/interrupts.o
                0x9d004264                ADC_Handler

.text.getIsMotorInUse
                0x9d0042b4       0x50
 .text.getIsMotorInUse
                0x9d0042b4       0x50 build/default/debug/_ext/1360937237/moteurs.o
                0x9d0042b4                getIsMotorInUse

.text.GPIO_PortClear
                0x9d004304       0x4c
 .text.GPIO_PortClear
                0x9d004304       0x4c build/default/debug/_ext/1865254177/plib_gpio.o
                0x9d004304                GPIO_PortClear

.text.GPIO_PortInputEnable
                0x9d004350       0x4c
 .text.GPIO_PortInputEnable
                0x9d004350       0x4c build/default/debug/_ext/1865254177/plib_gpio.o
                0x9d004350                GPIO_PortInputEnable

.text.GPIO_PortOutputEnable
                0x9d00439c       0x4c
 .text.GPIO_PortOutputEnable
                0x9d00439c       0x4c build/default/debug/_ext/1865254177/plib_gpio.o
                0x9d00439c                GPIO_PortOutputEnable

.text.setAuditState
                0x9d0043e8       0x4c
 .text.setAuditState
                0x9d0043e8       0x4c build/default/debug/_ext/1360937237/audits.o
                0x9d0043e8                setAuditState

.text.vParametersRead
                0x9d004434       0x4c
 .text.vParametersRead
                0x9d004434       0x4c build/default/debug/_ext/1360937237/parameters.o
                0x9d004434                vParametersRead

.text.prvDeleteTCB
                0x9d004480       0x4c
 .text.prvDeleteTCB
                0x9d004480       0x4c build/default/debug/_ext/404212886/FreeRTOS_tasks.o
                0x9d004480                prvDeleteTCB

.text.prvTimerTask
                0x9d0044cc       0x4c
 .text.prvTimerTask
                0x9d0044cc       0x4c build/default/debug/_ext/404212886/timers.o

.text.vLCD_Enable
                0x9d004518       0x4c
 .text.vLCD_Enable
                0x9d004518       0x4c build/default/debug/_ext/1360937237/hd44780.o

.text.setLedEnable
                0x9d004564       0x4c
 .text.setLedEnable
                0x9d004564       0x4c build/default/debug/_ext/1360937237/leds.o
                0x9d004564                setLedEnable

.text.powerCarrouselMotors
                0x9d0045b0       0x4c
 .text.powerCarrouselMotors
                0x9d0045b0       0x4c build/default/debug/_ext/1360937237/moteurs.o

.text.actvateBreakMotors
                0x9d0045fc       0x4c
 .text.actvateBreakMotors
                0x9d0045fc       0x4c build/default/debug/_ext/1360937237/moteurs.o

.text.freeMotors
                0x9d004648       0x4c
 .text.freeMotors
                0x9d004648       0x4c build/default/debug/_ext/1360937237/moteurs.o

.text           0x9d004694       0x4c
 .text          0x9d004694       0x4c d:/program files (x86)/microchip/xc32/v2.30/bin/bin/../../lib/gcc/pic32mx/4.8.3\libgcc.a(floatunsisf.o)
                0x9d004694                __floatunsisf

.text.UART3_WriteByte
                0x9d0046e0       0x48
 .text.UART3_WriteByte
                0x9d0046e0       0x48 build/default/debug/_ext/1865657120/plib_uart3.o
                0x9d0046e0                UART3_WriteByte

.text.UART1_WriteByte
                0x9d004728       0x48
 .text.UART1_WriteByte
                0x9d004728       0x48 build/default/debug/_ext/1865657120/plib_uart1.o
                0x9d004728                UART1_WriteByte

.text.vResetBV  0x9d004770       0x48
 .text.vResetBV
                0x9d004770       0x48 build/default/debug/_ext/659830161/MDB_BV.o

.text.setKeyState
                0x9d0047b8       0x48
 .text.setKeyState
                0x9d0047b8       0x48 build/default/debug/_ext/1360937237/contacts.o

.text.setDoorSwitchState
                0x9d004800       0x48
 .text.setDoorSwitchState
                0x9d004800       0x48 build/default/debug/_ext/1360937237/contacts.o

.text.getLastDir
                0x9d004848       0x48
 .text.getLastDir
                0x9d004848       0x48 build/default/debug/_ext/1360937237/moteurs.o
                0x9d004848                getLastDir

.text._bootstrap_exception_handler
                0x9d004890       0x48
 .text._bootstrap_exception_handler
                0x9d004890       0x48 d:/program files (x86)/microchip/xc32/v2.30/bin/bin/../../lib/gcc/pic32mx/4.8.3/../../../../pic32mx/lib\libpic32.a(default-bootstrap-exception-handler.o)
                0x9d004890                _bootstrap_exception_handler

.vector_default
                0x9d0048d8       0x48
 .vector_default
                0x9d0048d8       0x48 d:/program files (x86)/microchip/xc32/v2.30/bin/bin/../../lib/gcc/pic32mx/4.8.3/../../../../pic32mx/lib\libpic32.a(defaultinterrupt.o)
                0x9d0048d8                _DefaultInterrupt

.text.EVIC_Initialize
                0x9d004920       0x44
 .text.EVIC_Initialize
                0x9d004920       0x44 build/default/debug/_ext/1865200349/plib_evic.o
                0x9d004920                EVIC_Initialize

.text.GPIO_PortRead
                0x9d004964       0x44
 .text.GPIO_PortRead
                0x9d004964       0x44 build/default/debug/_ext/1865254177/plib_gpio.o
                0x9d004964                GPIO_PortRead

.text.UART3_TransmitterIsReady
                0x9d0049a8       0x44
 .text.UART3_TransmitterIsReady
                0x9d0049a8       0x44 build/default/debug/_ext/1865657120/plib_uart3.o
                0x9d0049a8                UART3_TransmitterIsReady

.text.UART3_TransmitComplete
                0x9d0049ec       0x44
 .text.UART3_TransmitComplete
                0x9d0049ec       0x44 build/default/debug/_ext/1865657120/plib_uart3.o
                0x9d0049ec                UART3_TransmitComplete

.text.UART3_ReceiverIsReady
                0x9d004a30       0x44
 .text.UART3_ReceiverIsReady
                0x9d004a30       0x44 build/default/debug/_ext/1865657120/plib_uart3.o
                0x9d004a30                UART3_ReceiverIsReady

.text.UART1_TransmitterIsReady
                0x9d004a74       0x44
 .text.UART1_TransmitterIsReady
                0x9d004a74       0x44 build/default/debug/_ext/1865657120/plib_uart1.o
                0x9d004a74                UART1_TransmitterIsReady

.text.UART1_TransmitComplete
                0x9d004ab8       0x44
 .text.UART1_TransmitComplete
                0x9d004ab8       0x44 build/default/debug/_ext/1865657120/plib_uart1.o
                0x9d004ab8                UART1_TransmitComplete

.text.UART1_ReceiverIsReady
                0x9d004afc       0x44
 .text.UART1_ReceiverIsReady
                0x9d004afc       0x44 build/default/debug/_ext/1865657120/plib_uart1.o
                0x9d004afc                UART1_ReceiverIsReady

.text.vApplicationStackOverflowHook
                0x9d004b40       0x44
 .text.vApplicationStackOverflowHook
                0x9d004b40       0x44 build/default/debug/_ext/1171490990/freertos_hooks.o
                0x9d004b40                vApplicationStackOverflowHook

.text.getCoinType
                0x9d004b84       0x44
 .text.getCoinType
                0x9d004b84       0x44 build/default/debug/_ext/659830161/MDB_CG.o
                0x9d004b84                getCoinType

.text.getBillType
                0x9d004bc8       0x44
 .text.getBillType
                0x9d004bc8       0x44 build/default/debug/_ext/659830161/MDB_BV.o
                0x9d004bc8                getBillType

.text           0x9d004c0c       0x88
 .text          0x9d004c0c       0x44 d:/program files (x86)/microchip/xc32/v2.30/bin/bin/../../lib/gcc/pic32mx/4.8.3/../../../../pic32mx/lib\pic32_software_reset.o
                0x9d004c0c                __pic32_software_reset
 .text          0x9d004c50       0x44 d:/program files (x86)/microchip/xc32/v2.30/bin/bin/../../lib/gcc/pic32mx/4.8.3\libgcc.a(floatunsidf.o)
                0x9d004c50                __floatunsidf

.text.I2C1_ErrorGet
                0x9d004c94       0x40
 .text.I2C1_ErrorGet
                0x9d004c94       0x40 build/default/debug/_ext/60169480/plib_i2c1.o
                0x9d004c94                I2C1_ErrorGet

.text.NVM_PageErase
                0x9d004cd4       0x40
 .text.NVM_PageErase
                0x9d004cd4       0x40 build/default/debug/_ext/60176403/plib_nvm.o
                0x9d004cd4                NVM_PageErase

.text.getProductPrice
                0x9d004d14       0x40
 .text.getProductPrice
                0x9d004d14       0x40 build/default/debug/_ext/1360937237/parameters.o
                0x9d004d14                getProductPrice

.text.getEnableState
                0x9d004d54       0x40
 .text.getEnableState
                0x9d004d54       0x40 build/default/debug/_ext/1360937237/parameters.o
                0x9d004d54                getEnableState

.text.pvTaskIncrementMutexHeldCount
                0x9d004d94       0x40
 .text.pvTaskIncrementMutexHeldCount
                0x9d004d94       0x40 build/default/debug/_ext/404212886/FreeRTOS_tasks.o
                0x9d004d94                pvTaskIncrementMutexHeldCount

.text.vLCD_CLEAR
                0x9d004dd4       0x40
 .text.vLCD_CLEAR
                0x9d004dd4       0x40 build/default/debug/_ext/1360937237/hd44780.o
                0x9d004dd4                vLCD_CLEAR

.text.sendCommand
                0x9d004e14       0x40
 .text.sendCommand
                0x9d004e14       0x40 build/default/debug/_ext/1360937237/DS18B20.o

.text.vTO_DisplaySelection
                0x9d004e54       0x40
 .text.vTO_DisplaySelection
                0x9d004e54       0x40 build/default/debug/_ext/1360937237/mainboard2.o

.text.prvTaskExitError
                0x9d004e94       0x3c
 .text.prvTaskExitError
                0x9d004e94       0x3c build/default/debug/_ext/951553248/port.o

.text.vTaskInternalSetTimeOutState
                0x9d004ed0       0x3c
 .text.vTaskInternalSetTimeOutState
                0x9d004ed0       0x3c build/default/debug/_ext/404212886/FreeRTOS_tasks.o
                0x9d004ed0                vTaskInternalSetTimeOutState

.rodata         0x9d004f0c       0x3c
 .rodata        0x9d004f0c       0x3c build/default/debug/_ext/659830161/MDB.o

.text.getKeyState
                0x9d004f48       0x3c
 .text.getKeyState
                0x9d004f48       0x3c build/default/debug/_ext/1360937237/contacts.o

.text.getDoorSwitchState
                0x9d004f84       0x3c
 .text.getDoorSwitchState
                0x9d004f84       0x3c build/default/debug/_ext/1360937237/contacts.o
                0x9d004f84                getDoorSwitchState

.text.setIsRAZAudit
                0x9d004fc0       0x38
 .text.setIsRAZAudit
                0x9d004fc0       0x38 build/default/debug/_ext/1360937237/audits.o
                0x9d004fc0                setIsRAZAudit

.text.vPortClearInterruptMaskFromISR
                0x9d004ff8       0x38
 .text.vPortClearInterruptMaskFromISR
                0x9d004ff8       0x38 build/default/debug/_ext/951553248/port.o
                0x9d004ff8                vPortClearInterruptMaskFromISR

.text.setMDBDecimalPoint
                0x9d005030       0x38
 .text.setMDBDecimalPoint
                0x9d005030       0x38 build/default/debug/_ext/659830161/MDB.o
                0x9d005030                setMDBDecimalPoint

.text.setMDBCurrencyDivider
                0x9d005068       0x38
 .text.setMDBCurrencyDivider
                0x9d005068       0x38 build/default/debug/_ext/659830161/MDB.o
                0x9d005068                setMDBCurrencyDivider

.text.setChangeGiverTaskState
                0x9d0050a0       0x38
 .text.setChangeGiverTaskState
                0x9d0050a0       0x38 build/default/debug/_ext/659830161/MDB_CG.o
                0x9d0050a0                setChangeGiverTaskState

.text.setIsChangeFinished
                0x9d0050d8       0x38
 .text.setIsChangeFinished
                0x9d0050d8       0x38 build/default/debug/_ext/659830161/MDB_CG.o
                0x9d0050d8                setIsChangeFinished

.text.setCoinEnableMask
                0x9d005110       0x38
 .text.setCoinEnableMask
                0x9d005110       0x38 build/default/debug/_ext/659830161/MDB_CG.o
                0x9d005110                setCoinEnableMask

.text.setBV_State
                0x9d005148       0x38
 .text.setBV_State
                0x9d005148       0x38 build/default/debug/_ext/659830161/MDB_BV.o
                0x9d005148                setBV_State

.text.setBillEnableMask
                0x9d005180       0x38
 .text.setBillEnableMask
                0x9d005180       0x38 build/default/debug/_ext/659830161/MDB_BV.o
                0x9d005180                setBillEnableMask

.text.vTO_Cumul
                0x9d0051b8       0x38
 .text.vTO_Cumul
                0x9d0051b8       0x38 build/default/debug/_ext/1360937237/mainboard2.o
                0x9d0051b8                vTO_Cumul

.text.DRV_AT24_Status
                0x9d0051f0       0x34
 .text.DRV_AT24_Status
                0x9d0051f0       0x34 build/default/debug/_ext/897820976/drv_at24.o
                0x9d0051f0                DRV_AT24_Status

.text.NVM_IsBusy
                0x9d005224       0x34
 .text.NVM_IsBusy
                0x9d005224       0x34 build/default/debug/_ext/60176403/plib_nvm.o
                0x9d005224                NVM_IsBusy

.text.vTOPC     0x9d005258       0x34
 .text.vTOPC    0x9d005258       0x34 build/default/debug/_ext/1360937237/dataCommun.o

.text.vNAKTO_MDB
                0x9d00528c       0x34
 .text.vNAKTO_MDB
                0x9d00528c       0x34 build/default/debug/_ext/659830161/MDB.o

.text.vTO_LCD   0x9d0052c0       0x34
 .text.vTO_LCD  0x9d0052c0       0x34 build/default/debug/_ext/1360937237/hd44780.o

.text.setMainBoardTaskState
                0x9d0052f4       0x34
 .text.setMainBoardTaskState
                0x9d0052f4       0x34 build/default/debug/_ext/1360937237/mainboard2.o
                0x9d0052f4                setMainBoardTaskState

.text.setAmountRequested
                0x9d005328       0x34
 .text.setAmountRequested
                0x9d005328       0x34 build/default/debug/_ext/1360937237/mainboard2.o
                0x9d005328                setAmountRequested

.text.setAmountDispo
                0x9d00535c       0x34
 .text.setAmountDispo
                0x9d00535c       0x34 build/default/debug/_ext/1360937237/mainboard2.o
                0x9d00535c                setAmountDispo

.text.I2C1_MASTER_InterruptHandler
                0x9d005390       0x30
 .text.I2C1_MASTER_InterruptHandler
                0x9d005390       0x30 build/default/debug/_ext/60169480/plib_i2c1.o

.rodata         0x9d0053c0       0x30
 .rodata        0x9d0053c0       0x30 build/default/debug/_ext/1171490990/initialization.o
                0x9d0053c0                drvAT24PlibAPI
                0x9d0053d8                drvAT24InitData

.text.I2C_1_Handler
                0x9d0053f0       0x30
 .text.I2C_1_Handler
                0x9d0053f0       0x30 build/default/debug/_ext/1171490990/interrupts.o
                0x9d0053f0                I2C_1_Handler

.text._MAINBOARD2_Tasks
                0x9d005420       0x30
 .text._MAINBOARD2_Tasks
                0x9d005420       0x30 build/default/debug/_ext/1171490990/tasks.o
                0x9d005420                _MAINBOARD2_Tasks

.text.getTOCumul
                0x9d005450       0x30
 .text.getTOCumul
                0x9d005450       0x30 build/default/debug/_ext/1360937237/parameters.o
                0x9d005450                getTOCumul

.text.vBVInit   0x9d005480       0x30
 .text.vBVInit  0x9d005480       0x30 build/default/debug/_ext/659830161/MDB_BV.o
                0x9d005480                vBVInit

.text.vShift_TO
                0x9d0054b0       0x30
 .text.vShift_TO
                0x9d0054b0       0x30 build/default/debug/_ext/1360937237/contacts.o

.text.ADC_Disable
                0x9d0054e0       0x2c
 .text.ADC_Disable
                0x9d0054e0       0x2c build/default/debug/_ext/60163342/plib_adc.o
                0x9d0054e0                ADC_Disable

.rodata         0x9d00550c       0x2c
 .rodata        0x9d00550c       0x2c build/default/debug/_ext/1360937237/audits.o

.text.getIsRAZAudit
                0x9d005538       0x2c
 .text.getIsRAZAudit
                0x9d005538       0x2c build/default/debug/_ext/1360937237/audits.o
                0x9d005538                getIsRAZAudit

.text.getAlarmHeater
                0x9d005564       0x2c
 .text.getAlarmHeater
                0x9d005564       0x2c build/default/debug/_ext/1360937237/parameters.o
                0x9d005564                getAlarmHeater

.text.getAlarmCold
                0x9d005590       0x2c
 .text.getAlarmCold
                0x9d005590       0x2c build/default/debug/_ext/1360937237/parameters.o
                0x9d005590                getAlarmCold

.text.getDelayOverpay
                0x9d0055bc       0x2c
 .text.getDelayOverpay
                0x9d0055bc       0x2c build/default/debug/_ext/1360937237/parameters.o
                0x9d0055bc                getDelayOverpay

.text.vListInitialiseItem
                0x9d0055e8       0x2c
 .text.vListInitialiseItem
                0x9d0055e8       0x2c build/default/debug/_ext/404212886/list.o
                0x9d0055e8                vListInitialiseItem

.text.vTaskSuspendAll
                0x9d005614       0x2c
 .text.vTaskSuspendAll
                0x9d005614       0x2c build/default/debug/_ext/404212886/FreeRTOS_tasks.o
                0x9d005614                vTaskSuspendAll

.text.xTaskGetTickCount
                0x9d005640       0x2c
 .text.xTaskGetTickCount
                0x9d005640       0x2c build/default/debug/_ext/404212886/FreeRTOS_tasks.o
                0x9d005640                xTaskGetTickCount

.text.getHandleMDB
                0x9d00566c       0x2c
 .text.getHandleMDB
                0x9d00566c       0x2c build/default/debug/_ext/659830161/MDB.o
                0x9d00566c                getHandleMDB

.text.getMDBDecimalPos
                0x9d005698       0x2c
 .text.getMDBDecimalPos
                0x9d005698       0x2c build/default/debug/_ext/659830161/MDB.o
                0x9d005698                getMDBDecimalPos

.text.getMDBCurrencyDivider
                0x9d0056c4       0x2c
 .text.getMDBCurrencyDivider
                0x9d0056c4       0x2c build/default/debug/_ext/659830161/MDB.o
                0x9d0056c4                getMDBCurrencyDivider

.rodata         0x9d0056f0       0x2c
 .rodata        0x9d0056f0       0x2c build/default/debug/_ext/659830161/MDB_CG.o
                0x9d0056f0                changeBase

.text.getChangeTaskHandle
                0x9d00571c       0x2c
 .text.getChangeTaskHandle
                0x9d00571c       0x2c build/default/debug/_ext/659830161/MDB_CG.o
                0x9d00571c                getChangeTaskHandle

.text.getGCInitialized
                0x9d005748       0x2c
 .text.getGCInitialized
                0x9d005748       0x2c build/default/debug/_ext/659830161/MDB_CG.o
                0x9d005748                getGCInitialized

.text.getIsChangeFinished
                0x9d005774       0x2c
 .text.getIsChangeFinished
                0x9d005774       0x2c build/default/debug/_ext/659830161/MDB_CG.o
                0x9d005774                getIsChangeFinished

.text.getIsBVInitialized
                0x9d0057a0       0x2c
 .text.getIsBVInitialized
                0x9d0057a0       0x2c build/default/debug/_ext/659830161/MDB_BV.o
                0x9d0057a0                getIsBVInitialized

.text.getTemp   0x9d0057cc       0x2c
 .text.getTemp  0x9d0057cc       0x2c build/default/debug/_ext/1360937237/DS18B20.o
                0x9d0057cc                getTemp

.text.getShiftState
                0x9d0057f8       0x2c
 .text.getShiftState
                0x9d0057f8       0x2c build/default/debug/_ext/1360937237/contacts.o
                0x9d0057f8                getShiftState

.text.getSelection
                0x9d005824       0x2c
 .text.getSelection
                0x9d005824       0x2c build/default/debug/_ext/1360937237/contacts.o
                0x9d005824                getSelection

.text.clrSelection
                0x9d005850       0x2c
 .text.clrSelection
                0x9d005850       0x2c build/default/debug/_ext/1360937237/contacts.o
                0x9d005850                clrSelection

.text.clrIsDoorMoved
                0x9d00587c       0x2c
 .text.clrIsDoorMoved
                0x9d00587c       0x2c build/default/debug/_ext/1360937237/contacts.o
                0x9d00587c                clrIsDoorMoved

.text.getIsDoorMoved
                0x9d0058a8       0x2c
 .text.getIsDoorMoved
                0x9d0058a8       0x2c build/default/debug/_ext/1360937237/contacts.o
                0x9d0058a8                getIsDoorMoved

.text.getAmountDispo
                0x9d0058d4       0x2c
 .text.getAmountDispo
                0x9d0058d4       0x2c build/default/debug/_ext/1360937237/mainboard2.o
                0x9d0058d4                getAmountDispo

.text.vprintf   0x9d005900       0x2c
 .text.vprintf  0x9d005900       0x2c d:/program files (x86)/microchip/xc32/v2.30/bin/bin/../../lib/gcc/pic32mx/4.8.3/../../../../pic32mx/lib\libc.a(vprintf.o)
                0x9d005900                vprintf

.text.RCON_SoftwareReset
                0x9d00592c       0x28
 .text.RCON_SoftwareReset
                0x9d00592c       0x28 build/default/debug/_ext/1865569570/plib_rcon.o
                0x9d00592c                RCON_SoftwareReset

.text.UART3_ReadByte
                0x9d005954       0x28
 .text.UART3_ReadByte
                0x9d005954       0x28 build/default/debug/_ext/1865657120/plib_uart3.o
                0x9d005954                UART3_ReadByte

.text.UART1_ReadByte
                0x9d00597c       0x28
 .text.UART1_ReadByte
                0x9d00597c       0x28 build/default/debug/_ext/1865657120/plib_uart1.o
                0x9d00597c                UART1_ReadByte

.text.vTaskMissedYield
                0x9d0059a4       0x28
 .text.vTaskMissedYield
                0x9d0059a4       0x28 build/default/debug/_ext/404212886/FreeRTOS_tasks.o
                0x9d0059a4                vTaskMissedYield

.text.getIsMDBChecked
                0x9d0059cc       0x28
 .text.getIsMDBChecked
                0x9d0059cc       0x28 build/default/debug/_ext/659830161/MDB.o
                0x9d0059cc                getIsMDBChecked

.text.getADCTaskHandle
                0x9d0059f4       0x28
 .text.getADCTaskHandle
                0x9d0059f4       0x28 build/default/debug/_ext/1360937237/trap_security.o
                0x9d0059f4                getADCTaskHandle

.text.vPortFree
                0x9d005a1c       0x24
 .text.vPortFree
                0x9d005a1c       0x24 build/default/debug/_ext/1665200909/heap_1.o
                0x9d005a1c                vPortFree

.text           0x9d005a40       0x18
 .text          0x9d005a40       0x18 d:/program files (x86)/microchip/xc32/v2.30/bin/bin/../../lib/gcc/pic32mx/4.8.3/../../../../pic32mx/lib\libpic32.a(default-nmi-handler.o)
                0x9d005a40                _nmi_handler

.rodata         0x9d005a58       0x28
 .rodata        0x9d005a58       0x14 build/default/debug/_ext/1171490990/tasks.o
 .rodata        0x9d005a6c       0x14 build/default/debug/_ext/1360937237/parameters.o

.rodata         0x9d005a80       0x28
 .rodata        0x9d005a80       0x14 build/default/debug/_ext/1360937237/dataCommun.o
 .rodata        0x9d005a94       0x14 build/default/debug/_ext/1360937237/DS18B20.o

.rodata         0x9d005aa8       0x24
 .rodata        0x9d005aa8       0x14 build/default/debug/_ext/1360937237/contacts.o
 .rodata        0x9d005abc       0x10 build/default/debug/_ext/404212886/timers.o

.text.__exception_handler_break
                0x9d005acc        0xc
 .text.__exception_handler_break
                0x9d005acc        0xc d:/program files (x86)/microchip/xc32/v2.30/bin/bin/../../lib/gcc/pic32mx/4.8.3/../../../../pic32mx/lib\software-debug-break.o
                0x9d005acc                __exception_handler_break

.rodata         0x9d005ad8       0x18
 .rodata        0x9d005ad8        0xc build/default/debug/_ext/1360937237/leds.o
 .rodata        0x9d005ae4        0xc build/default/debug/_ext/1360937237/moteurs.o

.rodata         0x9d005af0       0x10
 .rodata        0x9d005af0        0x8 build/default/debug/_ext/404212886/FreeRTOS_tasks.o
 .rodata        0x9d005af8        0x8 build/default/debug/_ext/659830161/MDB_BV.o

.rodata         0x9d005b00        0x8
 .rodata        0x9d005b00        0x8 build/default/debug/_ext/1360937237/trap_security.o

.text._on_reset
                0x9d005b08        0x8
 .text._on_reset
                0x9d005b08        0x8 d:/program files (x86)/microchip/xc32/v2.30/bin/bin/../../lib/gcc/pic32mx/4.8.3/../../../../pic32mx/lib\libpic32.a(default-on-reset.o)
                0x9d005b08                _on_reset

.text._on_bootstrap
                0x9d005b10        0x8
 .text._on_bootstrap
                0x9d005b10        0x8 d:/program files (x86)/microchip/xc32/v2.30/bin/bin/../../lib/gcc/pic32mx/4.8.3/../../../../pic32mx/lib\libpic32.a(default-on-bootstrap.o)
                0x9d005b10                _on_bootstrap

.rodata         0x9d005b18       0x10
 .rodata        0x9d005b18        0x8 d:/program files (x86)/microchip/xc32/v2.30/bin/bin/../../lib/gcc/pic32mx/4.8.3\libgcc.a(_floatundidf.o)
 .rodata        0x9d005b20        0x8 d:/program files (x86)/microchip/xc32/v2.30/bin/bin/../../lib/gcc/pic32mx/4.8.3\libgcc.a(floatunsidf.o)

.rodata         0x9d005b28        0x4
 .rodata        0x9d005b28        0x4 build/default/debug/_ext/951553248/port.o
                0x9d005b28                xISRStackTop
